
/home/tomoyo/RV32-pipeline/tests/build/chessc-riscv32e-npc.elf:     file format elf32-littleriscv


Disassembly of section .text:

80000000 <_start>:
80000000:	00000413          	li	s0,0
80000004:	0000b117          	auipc	sp,0xb
80000008:	ffc10113          	addi	sp,sp,-4 # 8000b000 <_end>
8000000c:	53d000ef          	jal	80000d48 <_trm_init>

80000010 <check_attack>:
80000010:	00002797          	auipc	a5,0x2
80000014:	18078793          	addi	a5,a5,384 # 80002190 <NUM>
80000018:	0007a783          	lw	a5,0(a5)
8000001c:	fc410113          	addi	sp,sp,-60
80000020:	02112c23          	sw	ra,56(sp)
80000024:	00002717          	auipc	a4,0x2
80000028:	16872703          	lw	a4,360(a4) # 8000218c <step_num>
8000002c:	fff78693          	addi	a3,a5,-1
80000030:	1ee688e3          	beq	a3,a4,80000a20 <check_attack+0xa10>
80000034:	02012223          	sw	zero,36(sp)
80000038:	00002317          	auipc	t1,0x2
8000003c:	09430313          	addi	t1,t1,148 # 800020cc <pieces>
80000040:	16f05263          	blez	a5,800001a4 <check_attack+0x194>
80000044:	02812a23          	sw	s0,52(sp)
80000048:	02912823          	sw	s1,48(sp)
8000004c:	00030293          	mv	t0,t1
80000050:	00c2a703          	lw	a4,12(t0)
80000054:	12070a63          	beqz	a4,80000188 <check_attack+0x178>
80000058:	0082a703          	lw	a4,8(t0)
8000005c:	00600693          	li	a3,6
80000060:	12e6e463          	bltu	a3,a4,80000188 <check_attack+0x178>
80000064:	00002697          	auipc	a3,0x2
80000068:	d7868693          	addi	a3,a3,-648 # 80001ddc <_etext+0x80>
8000006c:	00271713          	slli	a4,a4,0x2
80000070:	00d70733          	add	a4,a4,a3
80000074:	00072703          	lw	a4,0(a4)
80000078:	00d70733          	add	a4,a4,a3
8000007c:	00070067          	jr	a4
80000080:	00100713          	li	a4,1
80000084:	00100393          	li	t2,1
80000088:	00038413          	mv	s0,t2
8000008c:	02e12423          	sw	a4,40(sp)
80000090:	00e12623          	sw	a4,12(sp)
80000094:	02e12023          	sw	a4,32(sp)
80000098:	00e12e23          	sw	a4,28(sp)
8000009c:	00e12c23          	sw	a4,24(sp)
800000a0:	00e12a23          	sw	a4,20(sp)
800000a4:	00e12823          	sw	a4,16(sp)
800000a8:	00e12423          	sw	a4,8(sp)
800000ac:	00028393          	mv	t2,t0
800000b0:	00002497          	auipc	s1,0x2
800000b4:	01c48493          	addi	s1,s1,28 # 800020cc <pieces>
800000b8:	00000593          	li	a1,0
800000bc:	14f05ae3          	blez	a5,80000a10 <check_attack+0xa00>
800000c0:	0003a783          	lw	a5,0(t2)
800000c4:	0043a703          	lw	a4,4(t2)
800000c8:	00700293          	li	t0,7
800000cc:	40878333          	sub	t1,a5,s0
800000d0:	00878533          	add	a0,a5,s0
800000d4:	00612223          	sw	t1,4(sp)
800000d8:	008706b3          	add	a3,a4,s0
800000dc:	40870633          	sub	a2,a4,s0
800000e0:	54a2de63          	bge	t0,a0,8000063c <check_attack+0x62c>
800000e4:	5a034663          	bltz	t1,80000690 <check_attack+0x680>
800000e8:	00012e23          	sw	zero,28(sp)
800000ec:	72d2c463          	blt	t0,a3,80000814 <check_attack+0x804>
800000f0:	00012423          	sw	zero,8(sp)
800000f4:	0a0654e3          	bgez	a2,8000099c <check_attack+0x98c>
800000f8:	00012c23          	sw	zero,24(sp)
800000fc:	00012823          	sw	zero,16(sp)
80000100:	02012423          	sw	zero,40(sp)
80000104:	00c4a283          	lw	t0,12(s1)
80000108:	00028c63          	beqz	t0,80000120 <check_attack+0x110>
8000010c:	0004a283          	lw	t0,0(s1)
80000110:	5e550063          	beq	a0,t0,800006f0 <check_attack+0x6e0>
80000114:	00412303          	lw	t1,4(sp)
80000118:	08628c63          	beq	t0,t1,800001b0 <check_attack+0x1a0>
8000011c:	68578e63          	beq	a5,t0,800007b8 <check_attack+0x7a8>
80000120:	00002797          	auipc	a5,0x2
80000124:	07078793          	addi	a5,a5,112 # 80002190 <NUM>
80000128:	0007a783          	lw	a5,0(a5)
8000012c:	00158593          	addi	a1,a1,1
80000130:	01048493          	addi	s1,s1,16
80000134:	f8f5c6e3          	blt	a1,a5,800000c0 <check_attack+0xb0>
80000138:	00140413          	addi	s0,s0,1
8000013c:	00800713          	li	a4,8
80000140:	04e40263          	beq	s0,a4,80000184 <check_attack+0x174>
80000144:	01012703          	lw	a4,16(sp)
80000148:	f60714e3          	bnez	a4,800000b0 <check_attack+0xa0>
8000014c:	01412703          	lw	a4,20(sp)
80000150:	f60710e3          	bnez	a4,800000b0 <check_attack+0xa0>
80000154:	01812703          	lw	a4,24(sp)
80000158:	f4071ce3          	bnez	a4,800000b0 <check_attack+0xa0>
8000015c:	01c12703          	lw	a4,28(sp)
80000160:	f40718e3          	bnez	a4,800000b0 <check_attack+0xa0>
80000164:	02012703          	lw	a4,32(sp)
80000168:	f40714e3          	bnez	a4,800000b0 <check_attack+0xa0>
8000016c:	00c12703          	lw	a4,12(sp)
80000170:	f40710e3          	bnez	a4,800000b0 <check_attack+0xa0>
80000174:	02812703          	lw	a4,40(sp)
80000178:	f2071ce3          	bnez	a4,800000b0 <check_attack+0xa0>
8000017c:	00812703          	lw	a4,8(sp)
80000180:	f20718e3          	bnez	a4,800000b0 <check_attack+0xa0>
80000184:	00038293          	mv	t0,t2
80000188:	02412703          	lw	a4,36(sp)
8000018c:	01028293          	addi	t0,t0,16
80000190:	00170713          	addi	a4,a4,1
80000194:	02e12223          	sw	a4,36(sp)
80000198:	eaf74ce3          	blt	a4,a5,80000050 <check_attack+0x40>
8000019c:	03412403          	lw	s0,52(sp)
800001a0:	03012483          	lw	s1,48(sp)
800001a4:	03812083          	lw	ra,56(sp)
800001a8:	03c10113          	addi	sp,sp,60
800001ac:	00008067          	ret
800001b0:	0044a303          	lw	t1,4(s1)
800001b4:	02612623          	sw	t1,44(sp)
800001b8:	6e668863          	beq	a3,t1,800008a8 <check_attack+0x898>
800001bc:	72660263          	beq	a2,t1,800008e0 <check_attack+0x8d0>
800001c0:	02c12503          	lw	a0,44(sp)
800001c4:	f4a71ce3          	bne	a4,a0,8000011c <check_attack+0x10c>
800001c8:	02012703          	lw	a4,32(sp)
800001cc:	f40708e3          	beqz	a4,8000011c <check_attack+0x10c>
800001d0:	02412503          	lw	a0,36(sp)
800001d4:	02712623          	sw	t2,44(sp)
800001d8:	00b12223          	sw	a1,4(sp)
800001dc:	12d000ef          	jal	80000b08 <attack>
800001e0:	00412583          	lw	a1,4(sp)
800001e4:	02c12383          	lw	t2,44(sp)
800001e8:	02012023          	sw	zero,32(sp)
800001ec:	f35ff06f          	j	80000120 <check_attack+0x110>
800001f0:	00002417          	auipc	s0,0x2
800001f4:	edc40413          	addi	s0,s0,-292 # 800020cc <pieces>
800001f8:	00000593          	li	a1,0
800001fc:	00100493          	li	s1,1
80000200:	01c0006f          	j	8000021c <check_attack+0x20c>
80000204:	00002797          	auipc	a5,0x2
80000208:	f8c78793          	addi	a5,a5,-116 # 80002190 <NUM>
8000020c:	0007a783          	lw	a5,0(a5)
80000210:	00158593          	addi	a1,a1,1
80000214:	01040413          	addi	s0,s0,16
80000218:	f6f5d8e3          	bge	a1,a5,80000188 <check_attack+0x178>
8000021c:	00c42783          	lw	a5,12(s0)
80000220:	fe0782e3          	beqz	a5,80000204 <check_attack+0x1f4>
80000224:	0002a703          	lw	a4,0(t0)
80000228:	00042783          	lw	a5,0(s0)
8000022c:	40e787b3          	sub	a5,a5,a4
80000230:	41f7d713          	srai	a4,a5,0x1f
80000234:	00f747b3          	xor	a5,a4,a5
80000238:	40e787b3          	sub	a5,a5,a4
8000023c:	fcf4c4e3          	blt	s1,a5,80000204 <check_attack+0x1f4>
80000240:	0042a703          	lw	a4,4(t0)
80000244:	00442783          	lw	a5,4(s0)
80000248:	40e787b3          	sub	a5,a5,a4
8000024c:	41f7d713          	srai	a4,a5,0x1f
80000250:	00f747b3          	xor	a5,a4,a5
80000254:	40e787b3          	sub	a5,a5,a4
80000258:	faf4c6e3          	blt	s1,a5,80000204 <check_attack+0x1f4>
8000025c:	02412503          	lw	a0,36(sp)
80000260:	fab502e3          	beq	a0,a1,80000204 <check_attack+0x1f4>
80000264:	00512423          	sw	t0,8(sp)
80000268:	00b12223          	sw	a1,4(sp)
8000026c:	09d000ef          	jal	80000b08 <attack>
80000270:	00812283          	lw	t0,8(sp)
80000274:	00412583          	lw	a1,4(sp)
80000278:	f8dff06f          	j	80000204 <check_attack+0x1f4>
8000027c:	00100713          	li	a4,1
80000280:	00e12223          	sw	a4,4(sp)
80000284:	00412683          	lw	a3,4(sp)
80000288:	00e12423          	sw	a4,8(sp)
8000028c:	00812603          	lw	a2,8(sp)
80000290:	00d766b3          	or	a3,a4,a3
80000294:	00100313          	li	t1,1
80000298:	00e12823          	sw	a4,16(sp)
8000029c:	00e12623          	sw	a4,12(sp)
800002a0:	02512023          	sw	t0,32(sp)
800002a4:	00c6e6b3          	or	a3,a3,a2
800002a8:	00030493          	mv	s1,t1
800002ac:	10068663          	beqz	a3,800003b8 <check_attack+0x3a8>
800002b0:	00800693          	li	a3,8
800002b4:	10d48263          	beq	s1,a3,800003b8 <check_attack+0x3a8>
800002b8:	00002417          	auipc	s0,0x2
800002bc:	e1440413          	addi	s0,s0,-492 # 800020cc <pieces>
800002c0:	00000393          	li	t2,0
800002c4:	0cf05e63          	blez	a5,800003a0 <check_attack+0x390>
800002c8:	00712a23          	sw	t2,20(sp)
800002cc:	02012783          	lw	a5,32(sp)
800002d0:	0047a503          	lw	a0,4(a5)
800002d4:	0007a583          	lw	a1,0(a5)
800002d8:	40950733          	sub	a4,a0,s1
800002dc:	009507b3          	add	a5,a0,s1
800002e0:	00070393          	mv	t2,a4
800002e4:	00958333          	add	t1,a1,s1
800002e8:	00e12e23          	sw	a4,28(sp)
800002ec:	00700713          	li	a4,7
800002f0:	00672633          	slt	a2,a4,t1
800002f4:	00f12c23          	sw	a5,24(sp)
800002f8:	00f72733          	slt	a4,a4,a5
800002fc:	fff3c793          	not	a5,t2
80000300:	00c12383          	lw	t2,12(sp)
80000304:	fff60613          	addi	a2,a2,-1
80000308:	409582b3          	sub	t0,a1,s1
8000030c:	00c3f633          	and	a2,t2,a2
80000310:	00c12623          	sw	a2,12(sp)
80000314:	01012603          	lw	a2,16(sp)
80000318:	fff2c693          	not	a3,t0
8000031c:	41f6d693          	srai	a3,a3,0x1f
80000320:	00d676b3          	and	a3,a2,a3
80000324:	00d12823          	sw	a3,16(sp)
80000328:	00412683          	lw	a3,4(sp)
8000032c:	fff70713          	addi	a4,a4,-1
80000330:	41f7d793          	srai	a5,a5,0x1f
80000334:	00e6f733          	and	a4,a3,a4
80000338:	00e12223          	sw	a4,4(sp)
8000033c:	00812703          	lw	a4,8(sp)
80000340:	00f777b3          	and	a5,a4,a5
80000344:	00f12423          	sw	a5,8(sp)
80000348:	00c42783          	lw	a5,12(s0)
8000034c:	02078463          	beqz	a5,80000374 <check_attack+0x364>
80000350:	00042783          	lw	a5,0(s0)
80000354:	3ef30463          	beq	t1,a5,8000073c <check_attack+0x72c>
80000358:	06f28e63          	beq	t0,a5,800003d4 <check_attack+0x3c4>
8000035c:	00f59c63          	bne	a1,a5,80000374 <check_attack+0x364>
80000360:	00442783          	lw	a5,4(s0)
80000364:	01812703          	lw	a4,24(sp)
80000368:	5ef70e63          	beq	a4,a5,80000964 <check_attack+0x954>
8000036c:	01c12703          	lw	a4,28(sp)
80000370:	60f70863          	beq	a4,a5,80000980 <check_attack+0x970>
80000374:	01412703          	lw	a4,20(sp)
80000378:	00002797          	auipc	a5,0x2
8000037c:	e1878793          	addi	a5,a5,-488 # 80002190 <NUM>
80000380:	0007a783          	lw	a5,0(a5)
80000384:	00170713          	addi	a4,a4,1
80000388:	00e12a23          	sw	a4,20(sp)
8000038c:	01040413          	addi	s0,s0,16
80000390:	f2f74ee3          	blt	a4,a5,800002cc <check_attack+0x2bc>
80000394:	00c12703          	lw	a4,12(sp)
80000398:	01012683          	lw	a3,16(sp)
8000039c:	00d76733          	or	a4,a4,a3
800003a0:	00412683          	lw	a3,4(sp)
800003a4:	00812603          	lw	a2,8(sp)
800003a8:	00148493          	addi	s1,s1,1
800003ac:	00d766b3          	or	a3,a4,a3
800003b0:	00c6e6b3          	or	a3,a3,a2
800003b4:	ee069ee3          	bnez	a3,800002b0 <check_attack+0x2a0>
800003b8:	02412703          	lw	a4,36(sp)
800003bc:	02012283          	lw	t0,32(sp)
800003c0:	00170713          	addi	a4,a4,1
800003c4:	02e12223          	sw	a4,36(sp)
800003c8:	01028293          	addi	t0,t0,16
800003cc:	c8f742e3          	blt	a4,a5,80000050 <check_attack+0x40>
800003d0:	dcdff06f          	j	8000019c <check_attack+0x18c>
800003d4:	00442703          	lw	a4,4(s0)
800003d8:	f8e512e3          	bne	a0,a4,8000035c <check_attack+0x34c>
800003dc:	01012703          	lw	a4,16(sp)
800003e0:	f6070ee3          	beqz	a4,8000035c <check_attack+0x34c>
800003e4:	01412583          	lw	a1,20(sp)
800003e8:	02412503          	lw	a0,36(sp)
800003ec:	71c000ef          	jal	80000b08 <attack>
800003f0:	00012823          	sw	zero,16(sp)
800003f4:	f81ff06f          	j	80000374 <check_attack+0x364>
800003f8:	00100713          	li	a4,1
800003fc:	00100693          	li	a3,1
80000400:	00100393          	li	t2,1
80000404:	00e12623          	sw	a4,12(sp)
80000408:	00e12423          	sw	a4,8(sp)
8000040c:	00100413          	li	s0,1
80000410:	00100613          	li	a2,1
80000414:	00766733          	or	a4,a2,t2
80000418:	00d76733          	or	a4,a4,a3
8000041c:	d60706e3          	beqz	a4,80000188 <check_attack+0x178>
80000420:	00800713          	li	a4,8
80000424:	d6e402e3          	beq	s0,a4,80000188 <check_attack+0x178>
80000428:	00002497          	auipc	s1,0x2
8000042c:	ca448493          	addi	s1,s1,-860 # 800020cc <pieces>
80000430:	00000593          	li	a1,0
80000434:	00700713          	li	a4,7
80000438:	0af05863          	blez	a5,800004e8 <check_attack+0x4d8>
8000043c:	00d12223          	sw	a3,4(sp)
80000440:	0002a783          	lw	a5,0(t0)
80000444:	00878533          	add	a0,a5,s0
80000448:	22a74663          	blt	a4,a0,80000674 <check_attack+0x664>
8000044c:	0042a603          	lw	a2,4(t0)
80000450:	00812683          	lw	a3,8(sp)
80000454:	408787b3          	sub	a5,a5,s0
80000458:	00860333          	add	t1,a2,s0
8000045c:	00672333          	slt	t1,a4,t1
80000460:	fff30313          	addi	t1,t1,-1
80000464:	0066f333          	and	t1,a3,t1
80000468:	00c12683          	lw	a3,12(sp)
8000046c:	00862633          	slt	a2,a2,s0
80000470:	fff60613          	addi	a2,a2,-1
80000474:	00c6f6b3          	and	a3,a3,a2
80000478:	00612423          	sw	t1,8(sp)
8000047c:	00d12623          	sw	a3,12(sp)
80000480:	2007c263          	bltz	a5,80000684 <check_attack+0x674>
80000484:	0042a603          	lw	a2,4(t0)
80000488:	00412683          	lw	a3,4(sp)
8000048c:	00860333          	add	t1,a2,s0
80000490:	00862633          	slt	a2,a2,s0
80000494:	00672333          	slt	t1,a4,t1
80000498:	fff60613          	addi	a2,a2,-1
8000049c:	fff30313          	addi	t1,t1,-1
800004a0:	00c6f6b3          	and	a3,a3,a2
800004a4:	0063f3b3          	and	t2,t2,t1
800004a8:	00d12223          	sw	a3,4(sp)
800004ac:	00c4a603          	lw	a2,12(s1)
800004b0:	00060863          	beqz	a2,800004c0 <check_attack+0x4b0>
800004b4:	0004a603          	lw	a2,0(s1)
800004b8:	02c50c63          	beq	a0,a2,800004f0 <check_attack+0x4e0>
800004bc:	2ac78863          	beq	a5,a2,8000076c <check_attack+0x75c>
800004c0:	00002797          	auipc	a5,0x2
800004c4:	cd078793          	addi	a5,a5,-816 # 80002190 <NUM>
800004c8:	0007a783          	lw	a5,0(a5)
800004cc:	00158593          	addi	a1,a1,1
800004d0:	01048493          	addi	s1,s1,16
800004d4:	f6f5c6e3          	blt	a1,a5,80000440 <check_attack+0x430>
800004d8:	00812703          	lw	a4,8(sp)
800004dc:	00c12603          	lw	a2,12(sp)
800004e0:	00412683          	lw	a3,4(sp)
800004e4:	00c76633          	or	a2,a4,a2
800004e8:	00140413          	addi	s0,s0,1
800004ec:	f29ff06f          	j	80000414 <check_attack+0x404>
800004f0:	0042a503          	lw	a0,4(t0)
800004f4:	0044a303          	lw	t1,4(s1)
800004f8:	008506b3          	add	a3,a0,s0
800004fc:	40d30663          	beq	t1,a3,80000908 <check_attack+0x8f8>
80000500:	40850533          	sub	a0,a0,s0
80000504:	faa31ce3          	bne	t1,a0,800004bc <check_attack+0x4ac>
80000508:	00c12683          	lw	a3,12(sp)
8000050c:	fa0688e3          	beqz	a3,800004bc <check_attack+0x4ac>
80000510:	02412503          	lw	a0,36(sp)
80000514:	00712c23          	sw	t2,24(sp)
80000518:	00512a23          	sw	t0,20(sp)
8000051c:	00b12823          	sw	a1,16(sp)
80000520:	5e8000ef          	jal	80000b08 <attack>
80000524:	01012583          	lw	a1,16(sp)
80000528:	01412283          	lw	t0,20(sp)
8000052c:	01812383          	lw	t2,24(sp)
80000530:	00012623          	sw	zero,12(sp)
80000534:	00700713          	li	a4,7
80000538:	f89ff06f          	j	800004c0 <check_attack+0x4b0>
8000053c:	00002417          	auipc	s0,0x2
80000540:	b9040413          	addi	s0,s0,-1136 # 800020cc <pieces>
80000544:	00000493          	li	s1,0
80000548:	00200713          	li	a4,2
8000054c:	0240006f          	j	80000570 <check_attack+0x560>
80000550:	00100693          	li	a3,1
80000554:	44d78863          	beq	a5,a3,800009a4 <check_attack+0x994>
80000558:	00002797          	auipc	a5,0x2
8000055c:	c3878793          	addi	a5,a5,-968 # 80002190 <NUM>
80000560:	0007a783          	lw	a5,0(a5)
80000564:	00148493          	addi	s1,s1,1
80000568:	01040413          	addi	s0,s0,16
8000056c:	c0f4dee3          	bge	s1,a5,80000188 <check_attack+0x178>
80000570:	00c42783          	lw	a5,12(s0)
80000574:	fe0782e3          	beqz	a5,80000558 <check_attack+0x548>
80000578:	0042a683          	lw	a3,4(t0)
8000057c:	00442783          	lw	a5,4(s0)
80000580:	40d787b3          	sub	a5,a5,a3
80000584:	41f7d693          	srai	a3,a5,0x1f
80000588:	00f6c7b3          	xor	a5,a3,a5
8000058c:	40d787b3          	sub	a5,a5,a3
80000590:	fce790e3          	bne	a5,a4,80000550 <check_attack+0x540>
80000594:	0002a683          	lw	a3,0(t0)
80000598:	00042783          	lw	a5,0(s0)
8000059c:	40d787b3          	sub	a5,a5,a3
800005a0:	41f7d693          	srai	a3,a5,0x1f
800005a4:	00f6c7b3          	xor	a5,a3,a5
800005a8:	fff78793          	addi	a5,a5,-1
800005ac:	fad796e3          	bne	a5,a3,80000558 <check_attack+0x548>
800005b0:	02412503          	lw	a0,36(sp)
800005b4:	00048593          	mv	a1,s1
800005b8:	00512223          	sw	t0,4(sp)
800005bc:	54c000ef          	jal	80000b08 <attack>
800005c0:	00412283          	lw	t0,4(sp)
800005c4:	00200713          	li	a4,2
800005c8:	f91ff06f          	j	80000558 <check_attack+0x548>
800005cc:	00002417          	auipc	s0,0x2
800005d0:	b0040413          	addi	s0,s0,-1280 # 800020cc <pieces>
800005d4:	00000493          	li	s1,0
800005d8:	01c0006f          	j	800005f4 <check_attack+0x5e4>
800005dc:	00002797          	auipc	a5,0x2
800005e0:	bb478793          	addi	a5,a5,-1100 # 80002190 <NUM>
800005e4:	0007a783          	lw	a5,0(a5)
800005e8:	00148493          	addi	s1,s1,1
800005ec:	01040413          	addi	s0,s0,16
800005f0:	b8f4dce3          	bge	s1,a5,80000188 <check_attack+0x178>
800005f4:	00c42783          	lw	a5,12(s0)
800005f8:	fe0782e3          	beqz	a5,800005dc <check_attack+0x5cc>
800005fc:	0042a783          	lw	a5,4(t0)
80000600:	00442703          	lw	a4,4(s0)
80000604:	fff78793          	addi	a5,a5,-1
80000608:	fcf71ae3          	bne	a4,a5,800005dc <check_attack+0x5cc>
8000060c:	0002a783          	lw	a5,0(t0)
80000610:	00042703          	lw	a4,0(s0)
80000614:	fff78693          	addi	a3,a5,-1
80000618:	00d70663          	beq	a4,a3,80000624 <check_attack+0x614>
8000061c:	00178793          	addi	a5,a5,1
80000620:	faf71ee3          	bne	a4,a5,800005dc <check_attack+0x5cc>
80000624:	02412503          	lw	a0,36(sp)
80000628:	00048593          	mv	a1,s1
8000062c:	00512223          	sw	t0,4(sp)
80000630:	4d8000ef          	jal	80000b08 <attack>
80000634:	00412283          	lw	t0,4(sp)
80000638:	fa5ff06f          	j	800005dc <check_attack+0x5cc>
8000063c:	00812303          	lw	t1,8(sp)
80000640:	00700293          	li	t0,7
80000644:	00d2a2b3          	slt	t0,t0,a3
80000648:	fff28293          	addi	t0,t0,-1
8000064c:	005372b3          	and	t0,t1,t0
80000650:	00512423          	sw	t0,8(sp)
80000654:	00412303          	lw	t1,4(sp)
80000658:	06064a63          	bltz	a2,800006cc <check_attack+0x6bc>
8000065c:	04034063          	bltz	t1,8000069c <check_attack+0x68c>
80000660:	00700293          	li	t0,7
80000664:	aad2d0e3          	bge	t0,a3,80000104 <check_attack+0xf4>
80000668:	00012a23          	sw	zero,20(sp)
8000066c:	00012623          	sw	zero,12(sp)
80000670:	a95ff06f          	j	80000104 <check_attack+0xf4>
80000674:	00012423          	sw	zero,8(sp)
80000678:	00012623          	sw	zero,12(sp)
8000067c:	408787b3          	sub	a5,a5,s0
80000680:	e007d2e3          	bgez	a5,80000484 <check_attack+0x474>
80000684:	00000393          	li	t2,0
80000688:	00012223          	sw	zero,4(sp)
8000068c:	e21ff06f          	j	800004ac <check_attack+0x49c>
80000690:	00012423          	sw	zero,8(sp)
80000694:	00012823          	sw	zero,16(sp)
80000698:	00012e23          	sw	zero,28(sp)
8000069c:	00700313          	li	t1,7
800006a0:	00d322b3          	slt	t0,t1,a3
800006a4:	00c12303          	lw	t1,12(sp)
800006a8:	fff28293          	addi	t0,t0,-1
800006ac:	00012c23          	sw	zero,24(sp)
800006b0:	00537333          	and	t1,t1,t0
800006b4:	00612623          	sw	t1,12(sp)
800006b8:	00012a23          	sw	zero,20(sp)
800006bc:	02012023          	sw	zero,32(sp)
800006c0:	a40652e3          	bgez	a2,80000104 <check_attack+0xf4>
800006c4:	02012423          	sw	zero,40(sp)
800006c8:	a3dff06f          	j	80000104 <check_attack+0xf4>
800006cc:	16034063          	bltz	t1,8000082c <check_attack+0x81c>
800006d0:	00700313          	li	t1,7
800006d4:	a2d352e3          	bge	t1,a3,800000f8 <check_attack+0xe8>
800006d8:	00012c23          	sw	zero,24(sp)
800006dc:	00012a23          	sw	zero,20(sp)
800006e0:	00012623          	sw	zero,12(sp)
800006e4:	00012823          	sw	zero,16(sp)
800006e8:	02012423          	sw	zero,40(sp)
800006ec:	a19ff06f          	j	80000104 <check_attack+0xf4>
800006f0:	0044a303          	lw	t1,4(s1)
800006f4:	02612623          	sw	t1,44(sp)
800006f8:	14d30c63          	beq	t1,a3,80000850 <check_attack+0x840>
800006fc:	02c12303          	lw	t1,44(sp)
80000700:	16c30c63          	beq	t1,a2,80000878 <check_attack+0x868>
80000704:	00412303          	lw	t1,4(sp)
80000708:	18628c63          	beq	t0,t1,800008a0 <check_attack+0x890>
8000070c:	02c12503          	lw	a0,44(sp)
80000710:	a0a718e3          	bne	a4,a0,80000120 <check_attack+0x110>
80000714:	01c12703          	lw	a4,28(sp)
80000718:	a00702e3          	beqz	a4,8000011c <check_attack+0x10c>
8000071c:	02412503          	lw	a0,36(sp)
80000720:	02712623          	sw	t2,44(sp)
80000724:	00b12223          	sw	a1,4(sp)
80000728:	3e0000ef          	jal	80000b08 <attack>
8000072c:	00412583          	lw	a1,4(sp)
80000730:	02c12383          	lw	t2,44(sp)
80000734:	00012e23          	sw	zero,28(sp)
80000738:	9e9ff06f          	j	80000120 <check_attack+0x110>
8000073c:	00442783          	lw	a5,4(s0)
80000740:	c2f51ae3          	bne	a0,a5,80000374 <check_attack+0x364>
80000744:	00c12783          	lw	a5,12(sp)
80000748:	2a079a63          	bnez	a5,800009fc <check_attack+0x9ec>
8000074c:	c26294e3          	bne	t0,t1,80000374 <check_attack+0x364>
80000750:	01012783          	lw	a5,16(sp)
80000754:	c20780e3          	beqz	a5,80000374 <check_attack+0x364>
80000758:	01412583          	lw	a1,20(sp)
8000075c:	02412503          	lw	a0,36(sp)
80000760:	3a8000ef          	jal	80000b08 <attack>
80000764:	00012823          	sw	zero,16(sp)
80000768:	c0dff06f          	j	80000374 <check_attack+0x364>
8000076c:	0042a783          	lw	a5,4(t0)
80000770:	0044a603          	lw	a2,4(s1)
80000774:	00878533          	add	a0,a5,s0
80000778:	1ca60263          	beq	a2,a0,8000093c <check_attack+0x92c>
8000077c:	408787b3          	sub	a5,a5,s0
80000780:	d4f610e3          	bne	a2,a5,800004c0 <check_attack+0x4b0>
80000784:	00412783          	lw	a5,4(sp)
80000788:	d2078ce3          	beqz	a5,800004c0 <check_attack+0x4b0>
8000078c:	02412503          	lw	a0,36(sp)
80000790:	00712c23          	sw	t2,24(sp)
80000794:	00512a23          	sw	t0,20(sp)
80000798:	00b12823          	sw	a1,16(sp)
8000079c:	36c000ef          	jal	80000b08 <attack>
800007a0:	01812383          	lw	t2,24(sp)
800007a4:	01412283          	lw	t0,20(sp)
800007a8:	01012583          	lw	a1,16(sp)
800007ac:	00012223          	sw	zero,4(sp)
800007b0:	00700713          	li	a4,7
800007b4:	d0dff06f          	j	800004c0 <check_attack+0x4b0>
800007b8:	0044a783          	lw	a5,4(s1)
800007bc:	02d78863          	beq	a5,a3,800007ec <check_attack+0x7dc>
800007c0:	96c790e3          	bne	a5,a2,80000120 <check_attack+0x110>
800007c4:	02812783          	lw	a5,40(sp)
800007c8:	94078ce3          	beqz	a5,80000120 <check_attack+0x110>
800007cc:	02412503          	lw	a0,36(sp)
800007d0:	02712623          	sw	t2,44(sp)
800007d4:	00b12223          	sw	a1,4(sp)
800007d8:	330000ef          	jal	80000b08 <attack>
800007dc:	02c12383          	lw	t2,44(sp)
800007e0:	00412583          	lw	a1,4(sp)
800007e4:	02012423          	sw	zero,40(sp)
800007e8:	939ff06f          	j	80000120 <check_attack+0x110>
800007ec:	00c12703          	lw	a4,12(sp)
800007f0:	fc0708e3          	beqz	a4,800007c0 <check_attack+0x7b0>
800007f4:	02412503          	lw	a0,36(sp)
800007f8:	02712623          	sw	t2,44(sp)
800007fc:	00b12223          	sw	a1,4(sp)
80000800:	308000ef          	jal	80000b08 <attack>
80000804:	00412583          	lw	a1,4(sp)
80000808:	02c12383          	lw	t2,44(sp)
8000080c:	00012623          	sw	zero,12(sp)
80000810:	911ff06f          	j	80000120 <check_attack+0x110>
80000814:	02064063          	bltz	a2,80000834 <check_attack+0x824>
80000818:	00012a23          	sw	zero,20(sp)
8000081c:	00012623          	sw	zero,12(sp)
80000820:	00012823          	sw	zero,16(sp)
80000824:	00012423          	sw	zero,8(sp)
80000828:	8ddff06f          	j	80000104 <check_attack+0xf4>
8000082c:	00012823          	sw	zero,16(sp)
80000830:	e6dff06f          	j	8000069c <check_attack+0x68c>
80000834:	00012c23          	sw	zero,24(sp)
80000838:	00012a23          	sw	zero,20(sp)
8000083c:	00012623          	sw	zero,12(sp)
80000840:	00012823          	sw	zero,16(sp)
80000844:	00012423          	sw	zero,8(sp)
80000848:	02012423          	sw	zero,40(sp)
8000084c:	8b9ff06f          	j	80000104 <check_attack+0xf4>
80000850:	00812303          	lw	t1,8(sp)
80000854:	ea0304e3          	beqz	t1,800006fc <check_attack+0x6ec>
80000858:	02412503          	lw	a0,36(sp)
8000085c:	02712623          	sw	t2,44(sp)
80000860:	00b12223          	sw	a1,4(sp)
80000864:	2a4000ef          	jal	80000b08 <attack>
80000868:	00412583          	lw	a1,4(sp)
8000086c:	02c12383          	lw	t2,44(sp)
80000870:	00012423          	sw	zero,8(sp)
80000874:	8adff06f          	j	80000120 <check_attack+0x110>
80000878:	01012303          	lw	t1,16(sp)
8000087c:	e80304e3          	beqz	t1,80000704 <check_attack+0x6f4>
80000880:	02412503          	lw	a0,36(sp)
80000884:	02712623          	sw	t2,44(sp)
80000888:	00b12223          	sw	a1,4(sp)
8000088c:	27c000ef          	jal	80000b08 <attack>
80000890:	00412583          	lw	a1,4(sp)
80000894:	02c12383          	lw	t2,44(sp)
80000898:	00012823          	sw	zero,16(sp)
8000089c:	885ff06f          	j	80000120 <check_attack+0x110>
800008a0:	02c12303          	lw	t1,44(sp)
800008a4:	00d31663          	bne	t1,a3,800008b0 <check_attack+0x8a0>
800008a8:	01412303          	lw	t1,20(sp)
800008ac:	12031863          	bnez	t1,800009dc <check_attack+0x9cc>
800008b0:	02c12303          	lw	t1,44(sp)
800008b4:	02660663          	beq	a2,t1,800008e0 <check_attack+0x8d0>
800008b8:	905514e3          	bne	a0,t0,800001c0 <check_attack+0x1b0>
800008bc:	02c12503          	lw	a0,44(sp)
800008c0:	86a710e3          	bne	a4,a0,80000120 <check_attack+0x110>
800008c4:	01c12703          	lw	a4,28(sp)
800008c8:	e4071ae3          	bnez	a4,8000071c <check_attack+0x70c>
800008cc:	00412703          	lw	a4,4(sp)
800008d0:	84e298e3          	bne	t0,a4,80000120 <check_attack+0x110>
800008d4:	02012703          	lw	a4,32(sp)
800008d8:	840702e3          	beqz	a4,8000011c <check_attack+0x10c>
800008dc:	8f5ff06f          	j	800001d0 <check_attack+0x1c0>
800008e0:	01812303          	lw	t1,24(sp)
800008e4:	fc030ae3          	beqz	t1,800008b8 <check_attack+0x8a8>
800008e8:	02412503          	lw	a0,36(sp)
800008ec:	02712623          	sw	t2,44(sp)
800008f0:	00b12223          	sw	a1,4(sp)
800008f4:	214000ef          	jal	80000b08 <attack>
800008f8:	00412583          	lw	a1,4(sp)
800008fc:	02c12383          	lw	t2,44(sp)
80000900:	00012c23          	sw	zero,24(sp)
80000904:	81dff06f          	j	80000120 <check_attack+0x110>
80000908:	00812683          	lw	a3,8(sp)
8000090c:	be068ae3          	beqz	a3,80000500 <check_attack+0x4f0>
80000910:	02412503          	lw	a0,36(sp)
80000914:	00712c23          	sw	t2,24(sp)
80000918:	00512a23          	sw	t0,20(sp)
8000091c:	00b12823          	sw	a1,16(sp)
80000920:	1e8000ef          	jal	80000b08 <attack>
80000924:	01012583          	lw	a1,16(sp)
80000928:	01412283          	lw	t0,20(sp)
8000092c:	01812383          	lw	t2,24(sp)
80000930:	00012423          	sw	zero,8(sp)
80000934:	00700713          	li	a4,7
80000938:	b89ff06f          	j	800004c0 <check_attack+0x4b0>
8000093c:	e40380e3          	beqz	t2,8000077c <check_attack+0x76c>
80000940:	02412503          	lw	a0,36(sp)
80000944:	00512a23          	sw	t0,20(sp)
80000948:	00b12823          	sw	a1,16(sp)
8000094c:	1bc000ef          	jal	80000b08 <attack>
80000950:	01012583          	lw	a1,16(sp)
80000954:	01412283          	lw	t0,20(sp)
80000958:	00000393          	li	t2,0
8000095c:	00700713          	li	a4,7
80000960:	b61ff06f          	j	800004c0 <check_attack+0x4b0>
80000964:	00412703          	lw	a4,4(sp)
80000968:	a00702e3          	beqz	a4,8000036c <check_attack+0x35c>
8000096c:	01412583          	lw	a1,20(sp)
80000970:	02412503          	lw	a0,36(sp)
80000974:	194000ef          	jal	80000b08 <attack>
80000978:	00012223          	sw	zero,4(sp)
8000097c:	9f9ff06f          	j	80000374 <check_attack+0x364>
80000980:	00812783          	lw	a5,8(sp)
80000984:	9e0788e3          	beqz	a5,80000374 <check_attack+0x364>
80000988:	01412583          	lw	a1,20(sp)
8000098c:	02412503          	lw	a0,36(sp)
80000990:	178000ef          	jal	80000b08 <attack>
80000994:	00012423          	sw	zero,8(sp)
80000998:	9ddff06f          	j	80000374 <check_attack+0x364>
8000099c:	00012823          	sw	zero,16(sp)
800009a0:	f64ff06f          	j	80000104 <check_attack+0xf4>
800009a4:	0002a683          	lw	a3,0(t0)
800009a8:	00042783          	lw	a5,0(s0)
800009ac:	40d787b3          	sub	a5,a5,a3
800009b0:	41f7d693          	srai	a3,a5,0x1f
800009b4:	00f6c7b3          	xor	a5,a3,a5
800009b8:	40d787b3          	sub	a5,a5,a3
800009bc:	b8e79ee3          	bne	a5,a4,80000558 <check_attack+0x548>
800009c0:	02412503          	lw	a0,36(sp)
800009c4:	00048593          	mv	a1,s1
800009c8:	00512223          	sw	t0,4(sp)
800009cc:	13c000ef          	jal	80000b08 <attack>
800009d0:	00412283          	lw	t0,4(sp)
800009d4:	00200713          	li	a4,2
800009d8:	b81ff06f          	j	80000558 <check_attack+0x548>
800009dc:	02412503          	lw	a0,36(sp)
800009e0:	02712623          	sw	t2,44(sp)
800009e4:	00b12223          	sw	a1,4(sp)
800009e8:	120000ef          	jal	80000b08 <attack>
800009ec:	00412583          	lw	a1,4(sp)
800009f0:	02c12383          	lw	t2,44(sp)
800009f4:	00012a23          	sw	zero,20(sp)
800009f8:	f28ff06f          	j	80000120 <check_attack+0x110>
800009fc:	01412583          	lw	a1,20(sp)
80000a00:	02412503          	lw	a0,36(sp)
80000a04:	104000ef          	jal	80000b08 <attack>
80000a08:	00012623          	sw	zero,12(sp)
80000a0c:	969ff06f          	j	80000374 <check_attack+0x364>
80000a10:	00140413          	addi	s0,s0,1
80000a14:	00800713          	li	a4,8
80000a18:	f2e41663          	bne	s0,a4,80000144 <check_attack+0x134>
80000a1c:	f80ff06f          	j	8000019c <check_attack+0x18c>
80000a20:	00001517          	auipc	a0,0x1
80000a24:	33c50513          	addi	a0,a0,828 # 80001d5c <_etext>
80000a28:	02812a23          	sw	s0,52(sp)
80000a2c:	02912823          	sw	s1,48(sp)
80000a30:	495000ef          	jal	800016c4 <printf>
80000a34:	00001797          	auipc	a5,0x1
80000a38:	75c78793          	addi	a5,a5,1884 # 80002190 <NUM>
80000a3c:	0007a703          	lw	a4,0(a5)
80000a40:	00100793          	li	a5,1
80000a44:	00001497          	auipc	s1,0x1
80000a48:	56848493          	addi	s1,s1,1384 # 80001fac <steps>
80000a4c:	00000413          	li	s0,0
80000a50:	08e7de63          	bge	a5,a4,80000aec <check_attack+0xadc>
80000a54:	00c4a783          	lw	a5,12(s1)
80000a58:	0084a703          	lw	a4,8(s1)
80000a5c:	0044a603          	lw	a2,4(s1)
80000a60:	0004a583          	lw	a1,0(s1)
80000a64:	0144a503          	lw	a0,20(s1)
80000a68:	0104a683          	lw	a3,16(s1)
80000a6c:	00178793          	addi	a5,a5,1
80000a70:	00a12023          	sw	a0,0(sp)
80000a74:	00170713          	addi	a4,a4,1
80000a78:	00160613          	addi	a2,a2,1
80000a7c:	00158593          	addi	a1,a1,1
80000a80:	00001517          	auipc	a0,0x1
80000a84:	2ec50513          	addi	a0,a0,748 # 80001d6c <_etext+0x10>
80000a88:	43d000ef          	jal	800016c4 <printf>
80000a8c:	00001797          	auipc	a5,0x1
80000a90:	70478793          	addi	a5,a5,1796 # 80002190 <NUM>
80000a94:	0007a783          	lw	a5,0(a5)
80000a98:	00140413          	addi	s0,s0,1
80000a9c:	01848493          	addi	s1,s1,24
80000aa0:	fff78713          	addi	a4,a5,-1
80000aa4:	fae448e3          	blt	s0,a4,80000a54 <check_attack+0xa44>
80000aa8:	00100713          	li	a4,1
80000aac:	04f75063          	bge	a4,a5,80000aec <check_attack+0xadc>
80000ab0:	00001417          	auipc	s0,0x1
80000ab4:	3cc40413          	addi	s0,s0,972 # 80001e7c <step>
80000ab8:	00000493          	li	s1,0
80000abc:	00042583          	lw	a1,0(s0)
80000ac0:	00001517          	auipc	a0,0x1
80000ac4:	2c450513          	addi	a0,a0,708 # 80001d84 <_etext+0x28>
80000ac8:	00148493          	addi	s1,s1,1
80000acc:	00158593          	addi	a1,a1,1
80000ad0:	3f5000ef          	jal	800016c4 <printf>
80000ad4:	00001797          	auipc	a5,0x1
80000ad8:	6bc78793          	addi	a5,a5,1724 # 80002190 <NUM>
80000adc:	0007a783          	lw	a5,0(a5)
80000ae0:	00440413          	addi	s0,s0,4
80000ae4:	fff78793          	addi	a5,a5,-1
80000ae8:	fcf4cae3          	blt	s1,a5,80000abc <check_attack+0xaac>
80000aec:	03412403          	lw	s0,52(sp)
80000af0:	03012483          	lw	s1,48(sp)
80000af4:	03812083          	lw	ra,56(sp)
80000af8:	00001517          	auipc	a0,0x1
80000afc:	27050513          	addi	a0,a0,624 # 80001d68 <_etext+0xc>
80000b00:	03c10113          	addi	sp,sp,60
80000b04:	3c10006f          	j	800016c4 <printf>

80000b08 <attack>:
80000b08:	00001317          	auipc	t1,0x1
80000b0c:	68430313          	addi	t1,t1,1668 # 8000218c <step_num>
80000b10:	00032703          	lw	a4,0(t1)
80000b14:	fec10113          	addi	sp,sp,-20
80000b18:	00812623          	sw	s0,12(sp)
80000b1c:	00912423          	sw	s1,8(sp)
80000b20:	00451413          	slli	s0,a0,0x4
80000b24:	00001497          	auipc	s1,0x1
80000b28:	5a848493          	addi	s1,s1,1448 # 800020cc <pieces>
80000b2c:	00940433          	add	s0,s0,s1
80000b30:	00171693          	slli	a3,a4,0x1
80000b34:	00042383          	lw	t2,0(s0)
80000b38:	00442283          	lw	t0,4(s0)
80000b3c:	00459793          	slli	a5,a1,0x4
80000b40:	00e686b3          	add	a3,a3,a4
80000b44:	00112823          	sw	ra,16(sp)
80000b48:	00f484b3          	add	s1,s1,a5
80000b4c:	00369693          	slli	a3,a3,0x3
80000b50:	00001797          	auipc	a5,0x1
80000b54:	45c78793          	addi	a5,a5,1116 # 80001fac <steps>
80000b58:	00f687b3          	add	a5,a3,a5
80000b5c:	0004a623          	sw	zero,12(s1)
80000b60:	0044a083          	lw	ra,4(s1)
80000b64:	0077a023          	sw	t2,0(a5)
80000b68:	0057a223          	sw	t0,4(a5)
80000b6c:	0004a683          	lw	a3,0(s1)
80000b70:	0017a623          	sw	ra,12(a5)
80000b74:	00001617          	auipc	a2,0x1
80000b78:	30860613          	addi	a2,a2,776 # 80001e7c <step>
80000b7c:	00d7a423          	sw	a3,8(a5)
80000b80:	00842683          	lw	a3,8(s0)
80000b84:	00271513          	slli	a0,a4,0x2
80000b88:	00a60533          	add	a0,a2,a0
80000b8c:	00d7a823          	sw	a3,16(a5)
80000b90:	0084a683          	lw	a3,8(s1)
80000b94:	00170713          	addi	a4,a4,1
80000b98:	00712223          	sw	t2,4(sp)
80000b9c:	00d7aa23          	sw	a3,20(a5)
80000ba0:	0004a783          	lw	a5,0(s1)
80000ba4:	00142223          	sw	ra,4(s0)
80000ba8:	00512023          	sw	t0,0(sp)
80000bac:	00f42023          	sw	a5,0(s0)
80000bb0:	00e32023          	sw	a4,0(t1)
80000bb4:	00b52023          	sw	a1,0(a0)
80000bb8:	c58ff0ef          	jal	80000010 <check_attack>
80000bbc:	00100713          	li	a4,1
80000bc0:	00e4a623          	sw	a4,12(s1)
80000bc4:	00001317          	auipc	t1,0x1
80000bc8:	5c830313          	addi	t1,t1,1480 # 8000218c <step_num>
80000bcc:	00042583          	lw	a1,0(s0)
80000bd0:	00442683          	lw	a3,4(s0)
80000bd4:	00032783          	lw	a5,0(t1)
80000bd8:	00412383          	lw	t2,4(sp)
80000bdc:	00012283          	lw	t0,0(sp)
80000be0:	00b4a023          	sw	a1,0(s1)
80000be4:	00d4a223          	sw	a3,4(s1)
80000be8:	fff78793          	addi	a5,a5,-1
80000bec:	00742023          	sw	t2,0(s0)
80000bf0:	00542223          	sw	t0,4(s0)
80000bf4:	01012083          	lw	ra,16(sp)
80000bf8:	00c12403          	lw	s0,12(sp)
80000bfc:	00279713          	slli	a4,a5,0x2
80000c00:	00001617          	auipc	a2,0x1
80000c04:	27c60613          	addi	a2,a2,636 # 80001e7c <step>
80000c08:	00f32023          	sw	a5,0(t1)
80000c0c:	00e60633          	add	a2,a2,a4
80000c10:	fff00793          	li	a5,-1
80000c14:	00f62023          	sw	a5,0(a2)
80000c18:	00812483          	lw	s1,8(sp)
80000c1c:	01410113          	addi	sp,sp,20
80000c20:	00008067          	ret

80000c24 <main>:
80000c24:	ff410113          	addi	sp,sp,-12
80000c28:	00812223          	sw	s0,4(sp)
80000c2c:	00912023          	sw	s1,0(sp)
80000c30:	00112423          	sw	ra,8(sp)
80000c34:	00001797          	auipc	a5,0x1
80000c38:	5407ae23          	sw	zero,1372(a5) # 80002190 <NUM>
80000c3c:	00001497          	auipc	s1,0x1
80000c40:	27048493          	addi	s1,s1,624 # 80001eac <board>
80000c44:	00000393          	li	t2,0
80000c48:	00000593          	li	a1,0
80000c4c:	00000293          	li	t0,0
80000c50:	00001317          	auipc	t1,0x1
80000c54:	47c30313          	addi	t1,t1,1148 # 800020cc <pieces>
80000c58:	00100413          	li	s0,1
80000c5c:	00800513          	li	a0,8
80000c60:	00048693          	mv	a3,s1
80000c64:	00000713          	li	a4,0
80000c68:	0006a603          	lw	a2,0(a3)
80000c6c:	00459793          	slli	a5,a1,0x4
80000c70:	00f307b3          	add	a5,t1,a5
80000c74:	00060e63          	beqz	a2,80000c90 <main+0x6c>
80000c78:	00e7a023          	sw	a4,0(a5)
80000c7c:	0057a223          	sw	t0,4(a5)
80000c80:	00c7a423          	sw	a2,8(a5)
80000c84:	0087a623          	sw	s0,12(a5)
80000c88:	00158593          	addi	a1,a1,1
80000c8c:	00100393          	li	t2,1
80000c90:	00170713          	addi	a4,a4,1
80000c94:	00468693          	addi	a3,a3,4
80000c98:	fca718e3          	bne	a4,a0,80000c68 <main+0x44>
80000c9c:	00128293          	addi	t0,t0,1
80000ca0:	02048493          	addi	s1,s1,32
80000ca4:	fae29ee3          	bne	t0,a4,80000c60 <main+0x3c>
80000ca8:	08038663          	beqz	t2,80000d34 <main+0x110>
80000cac:	00001797          	auipc	a5,0x1
80000cb0:	4e478793          	addi	a5,a5,1252 # 80002190 <NUM>
80000cb4:	00b7a023          	sw	a1,0(a5)
80000cb8:	04b05463          	blez	a1,80000d00 <main+0xdc>
80000cbc:	00001417          	auipc	s0,0x1
80000cc0:	41040413          	addi	s0,s0,1040 # 800020cc <pieces>
80000cc4:	00000493          	li	s1,0
80000cc8:	00442603          	lw	a2,4(s0)
80000ccc:	00042583          	lw	a1,0(s0)
80000cd0:	00842683          	lw	a3,8(s0)
80000cd4:	00160613          	addi	a2,a2,1
80000cd8:	00158593          	addi	a1,a1,1
80000cdc:	00001517          	auipc	a0,0x1
80000ce0:	0ac50513          	addi	a0,a0,172 # 80001d88 <_etext+0x2c>
80000ce4:	1e1000ef          	jal	800016c4 <printf>
80000ce8:	00001797          	auipc	a5,0x1
80000cec:	4a878793          	addi	a5,a5,1192 # 80002190 <NUM>
80000cf0:	0007a583          	lw	a1,0(a5)
80000cf4:	00148493          	addi	s1,s1,1
80000cf8:	01040413          	addi	s0,s0,16
80000cfc:	fcb4c6e3          	blt	s1,a1,80000cc8 <main+0xa4>
80000d00:	00001517          	auipc	a0,0x1
80000d04:	09450513          	addi	a0,a0,148 # 80001d94 <_etext+0x38>
80000d08:	1bd000ef          	jal	800016c4 <printf>
80000d0c:	b04ff0ef          	jal	80000010 <check_attack>
80000d10:	00001517          	auipc	a0,0x1
80000d14:	08c50513          	addi	a0,a0,140 # 80001d9c <_etext+0x40>
80000d18:	1ad000ef          	jal	800016c4 <printf>
80000d1c:	00812083          	lw	ra,8(sp)
80000d20:	00412403          	lw	s0,4(sp)
80000d24:	00012483          	lw	s1,0(sp)
80000d28:	00000513          	li	a0,0
80000d2c:	00c10113          	addi	sp,sp,12
80000d30:	00008067          	ret
80000d34:	00000593          	li	a1,0
80000d38:	fc9ff06f          	j	80000d00 <main+0xdc>

80000d3c <putch>:
80000d3c:	a00007b7          	lui	a5,0xa0000
80000d40:	3ea78c23          	sb	a0,1016(a5) # a00003f8 <_end+0x1fff53f8>
80000d44:	00008067          	ret

80000d48 <_trm_init>:
80000d48:	ff410113          	addi	sp,sp,-12
80000d4c:	00001517          	auipc	a0,0x1
80000d50:	0ac50513          	addi	a0,a0,172 # 80001df8 <mainargs>
80000d54:	00112423          	sw	ra,8(sp)
80000d58:	ecdff0ef          	jal	80000c24 <main>
80000d5c:	00050513          	mv	a0,a0
80000d60:	00100073          	ebreak
80000d64:	0000006f          	j	80000d64 <_trm_init+0x1c>

80000d68 <vsnprintf>:
80000d68:	f8810113          	addi	sp,sp,-120
80000d6c:	06812823          	sw	s0,112(sp)
80000d70:	06112a23          	sw	ra,116(sp)
80000d74:	00064783          	lbu	a5,0(a2)
80000d78:	00d12223          	sw	a3,4(sp)
80000d7c:	00058413          	mv	s0,a1
80000d80:	52078a63          	beqz	a5,800012b4 <vsnprintf+0x54c>
80000d84:	06912623          	sw	s1,108(sp)
80000d88:	00000493          	li	s1,0
80000d8c:	00048713          	mv	a4,s1
80000d90:	00060313          	mv	t1,a2
80000d94:	00058493          	mv	s1,a1
80000d98:	00050693          	mv	a3,a0
80000d9c:	00b12e23          	sw	a1,28(sp)
80000da0:	0240006f          	j	80000dc4 <vsnprintf+0x5c>
80000da4:	00048863          	beqz	s1,80000db4 <vsnprintf+0x4c>
80000da8:	00f68023          	sb	a5,0(a3)
80000dac:	fff48493          	addi	s1,s1,-1
80000db0:	00168693          	addi	a3,a3,1
80000db4:	00170713          	addi	a4,a4,1
80000db8:	00040313          	mv	t1,s0
80000dbc:	00034783          	lbu	a5,0(t1)
80000dc0:	22078063          	beqz	a5,80000fe0 <vsnprintf+0x278>
80000dc4:	02500613          	li	a2,37
80000dc8:	00130413          	addi	s0,t1,1
80000dcc:	fcc79ce3          	bne	a5,a2,80000da4 <vsnprintf+0x3c>
80000dd0:	01800613          	li	a2,24
80000dd4:	00000593          	li	a1,0
80000dd8:	03410513          	addi	a0,sp,52
80000ddc:	00612623          	sw	t1,12(sp)
80000de0:	00d12423          	sw	a3,8(sp)
80000de4:	00e12023          	sw	a4,0(sp)
80000de8:	6a1000ef          	jal	80001c88 <memset>
80000dec:	00c12303          	lw	t1,12(sp)
80000df0:	fff00793          	li	a5,-1
80000df4:	02f12e23          	sw	a5,60(sp)
80000df8:	00134603          	lbu	a2,1(t1)
80000dfc:	04f12023          	sw	a5,64(sp)
80000e00:	00012703          	lw	a4,0(sp)
80000e04:	00812683          	lw	a3,8(sp)
80000e08:	01000513          	li	a0,16
80000e0c:	00001597          	auipc	a1,0x1
80000e10:	02c58593          	addi	a1,a1,44 # 80001e38 <mainargs+0x40>
80000e14:	2c060e63          	beqz	a2,800010f0 <vsnprintf+0x388>
80000e18:	fe060793          	addi	a5,a2,-32
80000e1c:	0ff7f793          	zext.b	a5,a5
80000e20:	00f56c63          	bltu	a0,a5,80000e38 <vsnprintf+0xd0>
80000e24:	00279793          	slli	a5,a5,0x2
80000e28:	00b787b3          	add	a5,a5,a1
80000e2c:	0007a783          	lw	a5,0(a5)
80000e30:	00b787b3          	add	a5,a5,a1
80000e34:	00078067          	jr	a5
80000e38:	02a00793          	li	a5,42
80000e3c:	28f60a63          	beq	a2,a5,800010d0 <vsnprintf+0x368>
80000e40:	fd060793          	addi	a5,a2,-48
80000e44:	0ff7f793          	zext.b	a5,a5
80000e48:	00900513          	li	a0,9
80000e4c:	00044603          	lbu	a2,0(s0)
80000e50:	04f56263          	bltu	a0,a5,80000e94 <vsnprintf+0x12c>
80000e54:	fd060593          	addi	a1,a2,-48
80000e58:	02012e23          	sw	zero,60(sp)
80000e5c:	0ff5f793          	zext.b	a5,a1
80000e60:	02f56a63          	bltu	a0,a5,80000e94 <vsnprintf+0x12c>
80000e64:	00000793          	li	a5,0
80000e68:	00078313          	mv	t1,a5
80000e6c:	00144603          	lbu	a2,1(s0)
80000e70:	00231793          	slli	a5,t1,0x2
80000e74:	006787b3          	add	a5,a5,t1
80000e78:	00179793          	slli	a5,a5,0x1
80000e7c:	00b78333          	add	t1,a5,a1
80000e80:	fd060593          	addi	a1,a2,-48
80000e84:	0ff5f793          	zext.b	a5,a1
80000e88:	00140413          	addi	s0,s0,1
80000e8c:	fef570e3          	bgeu	a0,a5,80000e6c <vsnprintf+0x104>
80000e90:	02612e23          	sw	t1,60(sp)
80000e94:	02e00793          	li	a5,46
80000e98:	18f60863          	beq	a2,a5,80001028 <vsnprintf+0x2c0>
80000e9c:	06800793          	li	a5,104
80000ea0:	1ef60463          	beq	a2,a5,80001088 <vsnprintf+0x320>
80000ea4:	06c00793          	li	a5,108
80000ea8:	26f60863          	beq	a2,a5,80001118 <vsnprintf+0x3b0>
80000eac:	04c00793          	li	a5,76
80000eb0:	00140313          	addi	t1,s0,1
80000eb4:	00f61a63          	bne	a2,a5,80000ec8 <vsnprintf+0x160>
80000eb8:	00144603          	lbu	a2,1(s0)
80000ebc:	00500793          	li	a5,5
80000ec0:	04f12223          	sw	a5,68(sp)
80000ec4:	00240313          	addi	t1,s0,2
80000ec8:	04c10423          	sb	a2,72(sp)
80000ecc:	07800793          	li	a5,120
80000ed0:	eec7e6e3          	bltu	a5,a2,80000dbc <vsnprintf+0x54>
80000ed4:	06200793          	li	a5,98
80000ed8:	22c7f063          	bgeu	a5,a2,800010f8 <vsnprintf+0x390>
80000edc:	f9d60793          	addi	a5,a2,-99
80000ee0:	00100513          	li	a0,1
80000ee4:	002415b7          	lui	a1,0x241
80000ee8:	00f517b3          	sll	a5,a0,a5
80000eec:	04258593          	addi	a1,a1,66 # 241042 <_entry_offset+0x241042>
80000ef0:	00b7f5b3          	and	a1,a5,a1
80000ef4:	30059e63          	bnez	a1,80001210 <vsnprintf+0x4a8>
80000ef8:	0017f793          	andi	a5,a5,1
80000efc:	2e079663          	bnez	a5,800011e8 <vsnprintf+0x480>
80000f00:	07300793          	li	a5,115
80000f04:	eaf61ce3          	bne	a2,a5,80000dbc <vsnprintf+0x54>
80000f08:	00412783          	lw	a5,4(sp)
80000f0c:	0007a603          	lw	a2,0(a5)
80000f10:	00478793          	addi	a5,a5,4
80000f14:	00f12023          	sw	a5,0(sp)
80000f18:	38060863          	beqz	a2,800012a8 <vsnprintf+0x540>
80000f1c:	04012503          	lw	a0,64(sp)
80000f20:	36054e63          	bltz	a0,8000129c <vsnprintf+0x534>
80000f24:	6e050e63          	beqz	a0,80001620 <vsnprintf+0x8b8>
80000f28:	00000793          	li	a5,0
80000f2c:	0100006f          	j	80000f3c <vsnprintf+0x1d4>
80000f30:	00178293          	addi	t0,a5,1
80000f34:	26a2d263          	bge	t0,a0,80001198 <vsnprintf+0x430>
80000f38:	00028793          	mv	a5,t0
80000f3c:	00f605b3          	add	a1,a2,a5
80000f40:	0005c583          	lbu	a1,0(a1)
80000f44:	fe0596e3          	bnez	a1,80000f30 <vsnprintf+0x1c8>
80000f48:	03c12503          	lw	a0,60(sp)
80000f4c:	03414403          	lbu	s0,52(sp)
80000f50:	fff78593          	addi	a1,a5,-1
80000f54:	00000393          	li	t2,0
80000f58:	24a7ca63          	blt	a5,a0,800011ac <vsnprintf+0x444>
80000f5c:	02078e63          	beqz	a5,80000f98 <vsnprintf+0x230>
80000f60:	00070513          	mv	a0,a4
80000f64:	00158593          	addi	a1,a1,1
80000f68:	00e585b3          	add	a1,a1,a4
80000f6c:	01c0006f          	j	80000f88 <vsnprintf+0x220>
80000f70:	00048863          	beqz	s1,80000f80 <vsnprintf+0x218>
80000f74:	00f68023          	sb	a5,0(a3)
80000f78:	fff48493          	addi	s1,s1,-1
80000f7c:	00168693          	addi	a3,a3,1
80000f80:	00170713          	addi	a4,a4,1
80000f84:	00b70a63          	beq	a4,a1,80000f98 <vsnprintf+0x230>
80000f88:	40a707b3          	sub	a5,a4,a0
80000f8c:	00f607b3          	add	a5,a2,a5
80000f90:	0007c783          	lbu	a5,0(a5)
80000f94:	fc079ee3          	bnez	a5,80000f70 <vsnprintf+0x208>
80000f98:	00012783          	lw	a5,0(sp)
80000f9c:	00f12223          	sw	a5,4(sp)
80000fa0:	e0040ee3          	beqz	s0,80000dbc <vsnprintf+0x54>
80000fa4:	fff38793          	addi	a5,t2,-1
80000fa8:	e0038ae3          	beqz	t2,80000dbc <vsnprintf+0x54>
80000fac:	02000593          	li	a1,32
80000fb0:	fff00613          	li	a2,-1
80000fb4:	00048863          	beqz	s1,80000fc4 <vsnprintf+0x25c>
80000fb8:	00b68023          	sb	a1,0(a3)
80000fbc:	fff48493          	addi	s1,s1,-1
80000fc0:	00168693          	addi	a3,a3,1
80000fc4:	fff78793          	addi	a5,a5,-1
80000fc8:	fec796e3          	bne	a5,a2,80000fb4 <vsnprintf+0x24c>
80000fcc:	00012783          	lw	a5,0(sp)
80000fd0:	00770733          	add	a4,a4,t2
80000fd4:	00f12223          	sw	a5,4(sp)
80000fd8:	00034783          	lbu	a5,0(t1)
80000fdc:	de0794e3          	bnez	a5,80000dc4 <vsnprintf+0x5c>
80000fe0:	01c12403          	lw	s0,28(sp)
80000fe4:	00070493          	mv	s1,a4
80000fe8:	00048513          	mv	a0,s1
80000fec:	00068713          	mv	a4,a3
80000ff0:	06c12483          	lw	s1,108(sp)
80000ff4:	00040463          	beqz	s0,80000ffc <vsnprintf+0x294>
80000ff8:	00070023          	sb	zero,0(a4)
80000ffc:	07412083          	lw	ra,116(sp)
80001000:	07012403          	lw	s0,112(sp)
80001004:	07810113          	addi	sp,sp,120
80001008:	00008067          	ret
8000100c:	00100793          	li	a5,1
80001010:	02f10c23          	sb	a5,56(sp)
80001014:	00144603          	lbu	a2,1(s0)
80001018:	00140413          	addi	s0,s0,1
8000101c:	de061ee3          	bnez	a2,80000e18 <vsnprintf+0xb0>
80001020:	02e00793          	li	a5,46
80001024:	e6f61ce3          	bne	a2,a5,80000e9c <vsnprintf+0x134>
80001028:	00144603          	lbu	a2,1(s0)
8000102c:	02a00793          	li	a5,42
80001030:	22f60e63          	beq	a2,a5,8000126c <vsnprintf+0x504>
80001034:	fd060593          	addi	a1,a2,-48
80001038:	04012023          	sw	zero,64(sp)
8000103c:	0ff5f513          	zext.b	a0,a1
80001040:	00900793          	li	a5,9
80001044:	00140413          	addi	s0,s0,1
80001048:	e4a7eae3          	bltu	a5,a0,80000e9c <vsnprintf+0x134>
8000104c:	00000793          	li	a5,0
80001050:	00900513          	li	a0,9
80001054:	00078313          	mv	t1,a5
80001058:	00144603          	lbu	a2,1(s0)
8000105c:	00231793          	slli	a5,t1,0x2
80001060:	006787b3          	add	a5,a5,t1
80001064:	00179793          	slli	a5,a5,0x1
80001068:	00b78333          	add	t1,a5,a1
8000106c:	fd060593          	addi	a1,a2,-48
80001070:	0ff5f793          	zext.b	a5,a1
80001074:	00140413          	addi	s0,s0,1
80001078:	fef570e3          	bgeu	a0,a5,80001058 <vsnprintf+0x2f0>
8000107c:	04612023          	sw	t1,64(sp)
80001080:	06800793          	li	a5,104
80001084:	e2f610e3          	bne	a2,a5,80000ea4 <vsnprintf+0x13c>
80001088:	00144603          	lbu	a2,1(s0)
8000108c:	0ef60c63          	beq	a2,a5,80001184 <vsnprintf+0x41c>
80001090:	00200793          	li	a5,2
80001094:	04f12223          	sw	a5,68(sp)
80001098:	00240313          	addi	t1,s0,2
8000109c:	e2dff06f          	j	80000ec8 <vsnprintf+0x160>
800010a0:	00100793          	li	a5,1
800010a4:	02f10a23          	sb	a5,52(sp)
800010a8:	f6dff06f          	j	80001014 <vsnprintf+0x2ac>
800010ac:	00100793          	li	a5,1
800010b0:	02f10aa3          	sb	a5,53(sp)
800010b4:	f61ff06f          	j	80001014 <vsnprintf+0x2ac>
800010b8:	00100793          	li	a5,1
800010bc:	02f10ba3          	sb	a5,55(sp)
800010c0:	f55ff06f          	j	80001014 <vsnprintf+0x2ac>
800010c4:	00100793          	li	a5,1
800010c8:	02f10b23          	sb	a5,54(sp)
800010cc:	f49ff06f          	j	80001014 <vsnprintf+0x2ac>
800010d0:	00412583          	lw	a1,4(sp)
800010d4:	00144603          	lbu	a2,1(s0)
800010d8:	00140413          	addi	s0,s0,1
800010dc:	0005a783          	lw	a5,0(a1)
800010e0:	02f12e23          	sw	a5,60(sp)
800010e4:	00458793          	addi	a5,a1,4
800010e8:	00f12223          	sw	a5,4(sp)
800010ec:	da9ff06f          	j	80000e94 <vsnprintf+0x12c>
800010f0:	00230313          	addi	t1,t1,2
800010f4:	04010423          	sb	zero,72(sp)
800010f8:	02500793          	li	a5,37
800010fc:	02f61a63          	bne	a2,a5,80001130 <vsnprintf+0x3c8>
80001100:	00048863          	beqz	s1,80001110 <vsnprintf+0x3a8>
80001104:	00c68023          	sb	a2,0(a3)
80001108:	fff48493          	addi	s1,s1,-1
8000110c:	00168693          	addi	a3,a3,1
80001110:	00170713          	addi	a4,a4,1
80001114:	ca9ff06f          	j	80000dbc <vsnprintf+0x54>
80001118:	00144603          	lbu	a2,1(s0)
8000111c:	04f60a63          	beq	a2,a5,80001170 <vsnprintf+0x408>
80001120:	00300793          	li	a5,3
80001124:	04f12223          	sw	a5,68(sp)
80001128:	00240313          	addi	t1,s0,2
8000112c:	d9dff06f          	j	80000ec8 <vsnprintf+0x160>
80001130:	05800793          	li	a5,88
80001134:	c8f614e3          	bne	a2,a5,80000dbc <vsnprintf+0x54>
80001138:	04412783          	lw	a5,68(sp)
8000113c:	00300593          	li	a1,3
80001140:	48b78863          	beq	a5,a1,800015d0 <vsnprintf+0x868>
80001144:	54f5ec63          	bltu	a1,a5,8000169c <vsnprintf+0x934>
80001148:	00100593          	li	a1,1
8000114c:	4eb78a63          	beq	a5,a1,80001640 <vsnprintf+0x8d8>
80001150:	00200593          	li	a1,2
80001154:	46b79e63          	bne	a5,a1,800015d0 <vsnprintf+0x868>
80001158:	00412583          	lw	a1,4(sp)
8000115c:	00000793          	li	a5,0
80001160:	0005d283          	lhu	t0,0(a1)
80001164:	00458593          	addi	a1,a1,4
80001168:	00b12223          	sw	a1,4(sp)
8000116c:	4780006f          	j	800015e4 <vsnprintf+0x87c>
80001170:	00400793          	li	a5,4
80001174:	00244603          	lbu	a2,2(s0)
80001178:	04f12223          	sw	a5,68(sp)
8000117c:	00340313          	addi	t1,s0,3
80001180:	d49ff06f          	j	80000ec8 <vsnprintf+0x160>
80001184:	00100793          	li	a5,1
80001188:	00244603          	lbu	a2,2(s0)
8000118c:	04f12223          	sw	a5,68(sp)
80001190:	00340313          	addi	t1,s0,3
80001194:	d35ff06f          	j	80000ec8 <vsnprintf+0x160>
80001198:	03c12503          	lw	a0,60(sp)
8000119c:	03414403          	lbu	s0,52(sp)
800011a0:	0ea2d663          	bge	t0,a0,8000128c <vsnprintf+0x524>
800011a4:	00078593          	mv	a1,a5
800011a8:	00028793          	mv	a5,t0
800011ac:	40f503b3          	sub	t2,a0,a5
800011b0:	da0416e3          	bnez	s0,80000f5c <vsnprintf+0x1f4>
800011b4:	fff38513          	addi	a0,t2,-1
800011b8:	fff00293          	li	t0,-1
800011bc:	00f12223          	sw	a5,4(sp)
800011c0:	00048a63          	beqz	s1,800011d4 <vsnprintf+0x46c>
800011c4:	02000793          	li	a5,32
800011c8:	00f68023          	sb	a5,0(a3)
800011cc:	fff48493          	addi	s1,s1,-1
800011d0:	00168693          	addi	a3,a3,1
800011d4:	fff50513          	addi	a0,a0,-1
800011d8:	fe5514e3          	bne	a0,t0,800011c0 <vsnprintf+0x458>
800011dc:	00412783          	lw	a5,4(sp)
800011e0:	00770733          	add	a4,a4,t2
800011e4:	d79ff06f          	j	80000f5c <vsnprintf+0x1f4>
800011e8:	00412603          	lw	a2,4(sp)
800011ec:	00460793          	addi	a5,a2,4
800011f0:	00048a63          	beqz	s1,80001204 <vsnprintf+0x49c>
800011f4:	00062603          	lw	a2,0(a2)
800011f8:	00168693          	addi	a3,a3,1
800011fc:	fff48493          	addi	s1,s1,-1
80001200:	fec68fa3          	sb	a2,-1(a3)
80001204:	00170713          	addi	a4,a4,1
80001208:	00f12223          	sw	a5,4(sp)
8000120c:	bb1ff06f          	j	80000dbc <vsnprintf+0x54>
80001210:	f9c60793          	addi	a5,a2,-100
80001214:	0ff7f793          	zext.b	a5,a5
80001218:	01400593          	li	a1,20
8000121c:	baf5e0e3          	bltu	a1,a5,80000dbc <vsnprintf+0x54>
80001220:	00f517b3          	sll	a5,a0,a5
80001224:	00b7d593          	srli	a1,a5,0xb
80001228:	2415f593          	andi	a1,a1,577
8000122c:	f00596e3          	bnez	a1,80001138 <vsnprintf+0x3d0>
80001230:	0217f793          	andi	a5,a5,33
80001234:	b80784e3          	beqz	a5,80000dbc <vsnprintf+0x54>
80001238:	04412783          	lw	a5,68(sp)
8000123c:	00300593          	li	a1,3
80001240:	08b78263          	beq	a5,a1,800012c4 <vsnprintf+0x55c>
80001244:	42f5ec63          	bltu	a1,a5,8000167c <vsnprintf+0x914>
80001248:	40a78863          	beq	a5,a0,80001658 <vsnprintf+0x8f0>
8000124c:	00200593          	li	a1,2
80001250:	06b79a63          	bne	a5,a1,800012c4 <vsnprintf+0x55c>
80001254:	00412783          	lw	a5,4(sp)
80001258:	00079283          	lh	t0,0(a5)
8000125c:	00478793          	addi	a5,a5,4
80001260:	00f12223          	sw	a5,4(sp)
80001264:	41f2d793          	srai	a5,t0,0x1f
80001268:	0700006f          	j	800012d8 <vsnprintf+0x570>
8000126c:	00412583          	lw	a1,4(sp)
80001270:	00244603          	lbu	a2,2(s0)
80001274:	00240413          	addi	s0,s0,2
80001278:	0005a783          	lw	a5,0(a1)
8000127c:	00458593          	addi	a1,a1,4
80001280:	00b12223          	sw	a1,4(sp)
80001284:	04f12023          	sw	a5,64(sp)
80001288:	c15ff06f          	j	80000e9c <vsnprintf+0x134>
8000128c:	00070513          	mv	a0,a4
80001290:	00078593          	mv	a1,a5
80001294:	00000393          	li	t2,0
80001298:	ccdff06f          	j	80000f64 <vsnprintf+0x1fc>
8000129c:	80000537          	lui	a0,0x80000
800012a0:	fff50513          	addi	a0,a0,-1 # 7fffffff <_entry_offset+0x7fffffff>
800012a4:	c85ff06f          	j	80000f28 <vsnprintf+0x1c0>
800012a8:	00001617          	auipc	a2,0x1
800012ac:	b2c60613          	addi	a2,a2,-1236 # 80001dd4 <_etext+0x78>
800012b0:	c6dff06f          	j	80000f1c <vsnprintf+0x1b4>
800012b4:	00050713          	mv	a4,a0
800012b8:	00000513          	li	a0,0
800012bc:	d40400e3          	beqz	s0,80000ffc <vsnprintf+0x294>
800012c0:	d39ff06f          	j	80000ff8 <vsnprintf+0x290>
800012c4:	00412783          	lw	a5,4(sp)
800012c8:	0007a283          	lw	t0,0(a5)
800012cc:	00478793          	addi	a5,a5,4
800012d0:	00f12223          	sw	a5,4(sp)
800012d4:	41f2d793          	srai	a5,t0,0x1f
800012d8:	02012023          	sw	zero,32(sp)
800012dc:	0007de63          	bgez	a5,800012f8 <vsnprintf+0x590>
800012e0:	005035b3          	snez	a1,t0
800012e4:	40f007b3          	neg	a5,a5
800012e8:	40b787b3          	sub	a5,a5,a1
800012ec:	00100593          	li	a1,1
800012f0:	405002b3          	neg	t0,t0
800012f4:	02b12023          	sw	a1,32(sp)
800012f8:	06f00593          	li	a1,111
800012fc:	2ab60663          	beq	a2,a1,800015a8 <vsnprintf+0x840>
80001300:	00a00613          	li	a2,10
80001304:	00c12023          	sw	a2,0(sp)
80001308:	00001617          	auipc	a2,0x1
8000130c:	aa460613          	addi	a2,a2,-1372 # 80001dac <_etext+0x50>
80001310:	00012a23          	sw	zero,20(sp)
80001314:	00c12823          	sw	a2,16(sp)
80001318:	02912423          	sw	s1,40(sp)
8000131c:	00000413          	li	s0,0
80001320:	02e12223          	sw	a4,36(sp)
80001324:	02d12623          	sw	a3,44(sp)
80001328:	02612823          	sw	t1,48(sp)
8000132c:	00028493          	mv	s1,t0
80001330:	00012603          	lw	a2,0(sp)
80001334:	00078593          	mv	a1,a5
80001338:	00f12623          	sw	a5,12(sp)
8000133c:	00140413          	addi	s0,s0,1
80001340:	04c10793          	addi	a5,sp,76
80001344:	008787b3          	add	a5,a5,s0
80001348:	00000693          	li	a3,0
8000134c:	00048513          	mv	a0,s1
80001350:	00f12423          	sw	a5,8(sp)
80001354:	7f8000ef          	jal	80001b4c <__umoddi3>
80001358:	01012683          	lw	a3,16(sp)
8000135c:	00c12783          	lw	a5,12(sp)
80001360:	00812703          	lw	a4,8(sp)
80001364:	00a68533          	add	a0,a3,a0
80001368:	00054303          	lbu	t1,0(a0)
8000136c:	00012603          	lw	a2,0(sp)
80001370:	00048513          	mv	a0,s1
80001374:	fe670fa3          	sb	t1,-1(a4)
80001378:	00078593          	mv	a1,a5
8000137c:	00000693          	li	a3,0
80001380:	00912c23          	sw	s1,24(sp)
80001384:	7c0000ef          	jal	80001b44 <__udivdi3>
80001388:	01412703          	lw	a4,20(sp)
8000138c:	00c12303          	lw	t1,12(sp)
80001390:	00058793          	mv	a5,a1
80001394:	00050493          	mv	s1,a0
80001398:	f8671ce3          	bne	a4,t1,80001330 <vsnprintf+0x5c8>
8000139c:	00012703          	lw	a4,0(sp)
800013a0:	01812683          	lw	a3,24(sp)
800013a4:	f8e6f6e3          	bgeu	a3,a4,80001330 <vsnprintf+0x5c8>
800013a8:	04012783          	lw	a5,64(sp)
800013ac:	02412703          	lw	a4,36(sp)
800013b0:	02812483          	lw	s1,40(sp)
800013b4:	02c12683          	lw	a3,44(sp)
800013b8:	03012303          	lw	t1,48(sp)
800013bc:	12f45063          	bge	s0,a5,800014dc <vsnprintf+0x774>
800013c0:	408783b3          	sub	t2,a5,s0
800013c4:	02012783          	lw	a5,32(sp)
800013c8:	fff38613          	addi	a2,t2,-1
800013cc:	12079063          	bnez	a5,800014ec <vsnprintf+0x784>
800013d0:	03514783          	lbu	a5,53(sp)
800013d4:	1e079863          	bnez	a5,800015c4 <vsnprintf+0x85c>
800013d8:	03614783          	lbu	a5,54(sp)
800013dc:	00579593          	slli	a1,a5,0x5
800013e0:	0ff5f513          	zext.b	a0,a1
800013e4:	03c12583          	lw	a1,60(sp)
800013e8:	00f387b3          	add	a5,t2,a5
800013ec:	008787b3          	add	a5,a5,s0
800013f0:	10b7ca63          	blt	a5,a1,80001504 <vsnprintf+0x79c>
800013f4:	03814783          	lbu	a5,56(sp)
800013f8:	00012023          	sw	zero,0(sp)
800013fc:	03414283          	lbu	t0,52(sp)
80001400:	16079063          	bnez	a5,80001560 <vsnprintf+0x7f8>
80001404:	0a029e63          	bnez	t0,800014c0 <vsnprintf+0x758>
80001408:	02050263          	beqz	a0,8000142c <vsnprintf+0x6c4>
8000140c:	02000593          	li	a1,32
80001410:	00000293          	li	t0,0
80001414:	1e048c63          	beqz	s1,8000160c <vsnprintf+0x8a4>
80001418:	00a68023          	sb	a0,0(a3)
8000141c:	fff48493          	addi	s1,s1,-1
80001420:	00168693          	addi	a3,a3,1
80001424:	00170713          	addi	a4,a4,1
80001428:	1e028463          	beqz	t0,80001610 <vsnprintf+0x8a8>
8000142c:	00060793          	mv	a5,a2
80001430:	03000513          	li	a0,48
80001434:	fff00593          	li	a1,-1
80001438:	02038263          	beqz	t2,8000145c <vsnprintf+0x6f4>
8000143c:	00048863          	beqz	s1,8000144c <vsnprintf+0x6e4>
80001440:	00a68023          	sb	a0,0(a3)
80001444:	fff48493          	addi	s1,s1,-1
80001448:	00168693          	addi	a3,a3,1
8000144c:	fff78793          	addi	a5,a5,-1
80001450:	feb796e3          	bne	a5,a1,8000143c <vsnprintf+0x6d4>
80001454:	00160793          	addi	a5,a2,1
80001458:	00f70733          	add	a4,a4,a5
8000145c:	00812603          	lw	a2,8(sp)
80001460:	00048a63          	beqz	s1,80001474 <vsnprintf+0x70c>
80001464:	fff64783          	lbu	a5,-1(a2)
80001468:	00168693          	addi	a3,a3,1
8000146c:	fff48493          	addi	s1,s1,-1
80001470:	fef68fa3          	sb	a5,-1(a3)
80001474:	fff60613          	addi	a2,a2,-1
80001478:	04c10793          	addi	a5,sp,76
8000147c:	fec792e3          	bne	a5,a2,80001460 <vsnprintf+0x6f8>
80001480:	00870733          	add	a4,a4,s0
80001484:	92028ce3          	beqz	t0,80000dbc <vsnprintf+0x54>
80001488:	00012603          	lw	a2,0(sp)
8000148c:	fff60793          	addi	a5,a2,-1
80001490:	920606e3          	beqz	a2,80000dbc <vsnprintf+0x54>
80001494:	02000593          	li	a1,32
80001498:	fff00613          	li	a2,-1
8000149c:	00048863          	beqz	s1,800014ac <vsnprintf+0x744>
800014a0:	00b68023          	sb	a1,0(a3)
800014a4:	fff48493          	addi	s1,s1,-1
800014a8:	00168693          	addi	a3,a3,1
800014ac:	fff78793          	addi	a5,a5,-1
800014b0:	fec796e3          	bne	a5,a2,8000149c <vsnprintf+0x734>
800014b4:	00012783          	lw	a5,0(sp)
800014b8:	00f70733          	add	a4,a4,a5
800014bc:	901ff06f          	j	80000dbc <vsnprintf+0x54>
800014c0:	00051663          	bnez	a0,800014cc <vsnprintf+0x764>
800014c4:	00100293          	li	t0,1
800014c8:	f65ff06f          	j	8000142c <vsnprintf+0x6c4>
800014cc:	1a049263          	bnez	s1,80001670 <vsnprintf+0x908>
800014d0:	00170713          	addi	a4,a4,1
800014d4:	00100293          	li	t0,1
800014d8:	f55ff06f          	j	8000142c <vsnprintf+0x6c4>
800014dc:	02012783          	lw	a5,32(sp)
800014e0:	fff00613          	li	a2,-1
800014e4:	00000393          	li	t2,0
800014e8:	ee0784e3          	beqz	a5,800013d0 <vsnprintf+0x668>
800014ec:	00100793          	li	a5,1
800014f0:	03c12583          	lw	a1,60(sp)
800014f4:	00f387b3          	add	a5,t2,a5
800014f8:	008787b3          	add	a5,a5,s0
800014fc:	02d00513          	li	a0,45
80001500:	eeb7dae3          	bge	a5,a1,800013f4 <vsnprintf+0x68c>
80001504:	03814283          	lbu	t0,56(sp)
80001508:	40f585b3          	sub	a1,a1,a5
8000150c:	00b12023          	sw	a1,0(sp)
80001510:	00512623          	sw	t0,12(sp)
80001514:	00c12783          	lw	a5,12(sp)
80001518:	03414283          	lbu	t0,52(sp)
8000151c:	04079263          	bnez	a5,80001560 <vsnprintf+0x7f8>
80001520:	fa0290e3          	bnez	t0,800014c0 <vsnprintf+0x758>
80001524:	00012783          	lw	a5,0(sp)
80001528:	fff00593          	li	a1,-1
8000152c:	00e12623          	sw	a4,12(sp)
80001530:	fff78793          	addi	a5,a5,-1
80001534:	00048a63          	beqz	s1,80001548 <vsnprintf+0x7e0>
80001538:	02000713          	li	a4,32
8000153c:	00e68023          	sb	a4,0(a3)
80001540:	fff48493          	addi	s1,s1,-1
80001544:	00168693          	addi	a3,a3,1
80001548:	fff78793          	addi	a5,a5,-1
8000154c:	feb794e3          	bne	a5,a1,80001534 <vsnprintf+0x7cc>
80001550:	00c12703          	lw	a4,12(sp)
80001554:	00012783          	lw	a5,0(sp)
80001558:	00f70733          	add	a4,a4,a5
8000155c:	eadff06f          	j	80001408 <vsnprintf+0x6a0>
80001560:	f60290e3          	bnez	t0,800014c0 <vsnprintf+0x758>
80001564:	03000593          	li	a1,48
80001568:	ea0514e3          	bnez	a0,80001410 <vsnprintf+0x6a8>
8000156c:	00012583          	lw	a1,0(sp)
80001570:	fff58793          	addi	a5,a1,-1
80001574:	14058463          	beqz	a1,800016bc <vsnprintf+0x954>
80001578:	03000513          	li	a0,48
8000157c:	fff00593          	li	a1,-1
80001580:	00048863          	beqz	s1,80001590 <vsnprintf+0x828>
80001584:	00a68023          	sb	a0,0(a3)
80001588:	fff48493          	addi	s1,s1,-1
8000158c:	00168693          	addi	a3,a3,1
80001590:	fff78793          	addi	a5,a5,-1
80001594:	feb796e3          	bne	a5,a1,80001580 <vsnprintf+0x818>
80001598:	00012783          	lw	a5,0(sp)
8000159c:	00000293          	li	t0,0
800015a0:	00f70733          	add	a4,a4,a5
800015a4:	e89ff06f          	j	8000142c <vsnprintf+0x6c4>
800015a8:	00800613          	li	a2,8
800015ac:	00c12023          	sw	a2,0(sp)
800015b0:	00000617          	auipc	a2,0x0
800015b4:	7fc60613          	addi	a2,a2,2044 # 80001dac <_etext+0x50>
800015b8:	00012a23          	sw	zero,20(sp)
800015bc:	00c12823          	sw	a2,16(sp)
800015c0:	d59ff06f          	j	80001318 <vsnprintf+0x5b0>
800015c4:	00100793          	li	a5,1
800015c8:	02b00513          	li	a0,43
800015cc:	e19ff06f          	j	800013e4 <vsnprintf+0x67c>
800015d0:	00412583          	lw	a1,4(sp)
800015d4:	00000793          	li	a5,0
800015d8:	0005a283          	lw	t0,0(a1)
800015dc:	00458593          	addi	a1,a1,4
800015e0:	00b12223          	sw	a1,4(sp)
800015e4:	05800593          	li	a1,88
800015e8:	02012023          	sw	zero,32(sp)
800015ec:	d0b616e3          	bne	a2,a1,800012f8 <vsnprintf+0x590>
800015f0:	00a00613          	li	a2,10
800015f4:	00c12023          	sw	a2,0(sp)
800015f8:	00000617          	auipc	a2,0x0
800015fc:	7c860613          	addi	a2,a2,1992 # 80001dc0 <_etext+0x64>
80001600:	00012a23          	sw	zero,20(sp)
80001604:	00c12823          	sw	a2,16(sp)
80001608:	d11ff06f          	j	80001318 <vsnprintf+0x5b0>
8000160c:	00170713          	addi	a4,a4,1
80001610:	03000793          	li	a5,48
80001614:	00000293          	li	t0,0
80001618:	e0f59ae3          	bne	a1,a5,8000142c <vsnprintf+0x6c4>
8000161c:	f51ff06f          	j	8000156c <vsnprintf+0x804>
80001620:	00012783          	lw	a5,0(sp)
80001624:	03c12503          	lw	a0,60(sp)
80001628:	00f12223          	sw	a5,4(sp)
8000162c:	f8a05863          	blez	a0,80000dbc <vsnprintf+0x54>
80001630:	03414403          	lbu	s0,52(sp)
80001634:	00000793          	li	a5,0
80001638:	fff00593          	li	a1,-1
8000163c:	b71ff06f          	j	800011ac <vsnprintf+0x444>
80001640:	00412583          	lw	a1,4(sp)
80001644:	00000793          	li	a5,0
80001648:	0005c283          	lbu	t0,0(a1)
8000164c:	00458593          	addi	a1,a1,4
80001650:	00b12223          	sw	a1,4(sp)
80001654:	f91ff06f          	j	800015e4 <vsnprintf+0x87c>
80001658:	00412783          	lw	a5,4(sp)
8000165c:	00078283          	lb	t0,0(a5)
80001660:	00478793          	addi	a5,a5,4
80001664:	00f12223          	sw	a5,4(sp)
80001668:	41f2d793          	srai	a5,t0,0x1f
8000166c:	c6dff06f          	j	800012d8 <vsnprintf+0x570>
80001670:	00100293          	li	t0,1
80001674:	02000593          	li	a1,32
80001678:	da1ff06f          	j	80001418 <vsnprintf+0x6b0>
8000167c:	00400593          	li	a1,4
80001680:	c4b792e3          	bne	a5,a1,800012c4 <vsnprintf+0x55c>
80001684:	00412583          	lw	a1,4(sp)
80001688:	0005a283          	lw	t0,0(a1)
8000168c:	0045a783          	lw	a5,4(a1)
80001690:	00858593          	addi	a1,a1,8
80001694:	00b12223          	sw	a1,4(sp)
80001698:	c41ff06f          	j	800012d8 <vsnprintf+0x570>
8000169c:	00400593          	li	a1,4
800016a0:	f2b798e3          	bne	a5,a1,800015d0 <vsnprintf+0x868>
800016a4:	00412583          	lw	a1,4(sp)
800016a8:	0005a283          	lw	t0,0(a1)
800016ac:	0045a783          	lw	a5,4(a1)
800016b0:	00858593          	addi	a1,a1,8
800016b4:	00b12223          	sw	a1,4(sp)
800016b8:	f2dff06f          	j	800015e4 <vsnprintf+0x87c>
800016bc:	00000293          	li	t0,0
800016c0:	d6dff06f          	j	8000142c <vsnprintf+0x6c4>

800016c4 <printf>:
800016c4:	bd810113          	addi	sp,sp,-1064
800016c8:	41410313          	addi	t1,sp,1044
800016cc:	40b12a23          	sw	a1,1044(sp)
800016d0:	800005b7          	lui	a1,0x80000
800016d4:	40c12c23          	sw	a2,1048(sp)
800016d8:	40d12e23          	sw	a3,1052(sp)
800016dc:	00050613          	mv	a2,a0
800016e0:	00030693          	mv	a3,t1
800016e4:	fff58593          	addi	a1,a1,-1 # 7fffffff <_entry_offset+0x7fffffff>
800016e8:	00810513          	addi	a0,sp,8
800016ec:	40112823          	sw	ra,1040(sp)
800016f0:	42e12023          	sw	a4,1056(sp)
800016f4:	42f12223          	sw	a5,1060(sp)
800016f8:	00612223          	sw	t1,4(sp)
800016fc:	e6cff0ef          	jal	80000d68 <vsnprintf>
80001700:	00a12023          	sw	a0,0(sp)
80001704:	02a05663          	blez	a0,80001730 <printf+0x6c>
80001708:	40912423          	sw	s1,1032(sp)
8000170c:	00810493          	addi	s1,sp,8
80001710:	40812623          	sw	s0,1036(sp)
80001714:	00a48433          	add	s0,s1,a0
80001718:	0004c503          	lbu	a0,0(s1)
8000171c:	00148493          	addi	s1,s1,1
80001720:	e1cff0ef          	jal	80000d3c <putch>
80001724:	fe849ae3          	bne	s1,s0,80001718 <printf+0x54>
80001728:	40c12403          	lw	s0,1036(sp)
8000172c:	40812483          	lw	s1,1032(sp)
80001730:	41012083          	lw	ra,1040(sp)
80001734:	00012503          	lw	a0,0(sp)
80001738:	42810113          	addi	sp,sp,1064
8000173c:	00008067          	ret

80001740 <__udivmoddi4>:
80001740:	fdc10113          	addi	sp,sp,-36
80001744:	00812e23          	sw	s0,28(sp)
80001748:	02112023          	sw	ra,32(sp)
8000174c:	00060413          	mv	s0,a2
80001750:	00050293          	mv	t0,a0
80001754:	00070613          	mv	a2,a4
80001758:	04059663          	bnez	a1,800017a4 <__udivmoddi4+0x64>
8000175c:	20069e63          	bnez	a3,80001978 <__udivmoddi4+0x238>
80001760:	00e12023          	sw	a4,0(sp)
80001764:	02070063          	beqz	a4,80001784 <__udivmoddi4+0x44>
80001768:	00040593          	mv	a1,s0
8000176c:	00a12223          	sw	a0,4(sp)
80001770:	588000ef          	jal	80001cf8 <__umodsi3>
80001774:	00012603          	lw	a2,0(sp)
80001778:	00412283          	lw	t0,4(sp)
8000177c:	00a62023          	sw	a0,0(a2)
80001780:	00062223          	sw	zero,4(a2)
80001784:	00040593          	mv	a1,s0
80001788:	00028513          	mv	a0,t0
8000178c:	524000ef          	jal	80001cb0 <__hidden___udivsi3>
80001790:	00000593          	li	a1,0
80001794:	02012083          	lw	ra,32(sp)
80001798:	01c12403          	lw	s0,28(sp)
8000179c:	02410113          	addi	sp,sp,36
800017a0:	00008067          	ret
800017a4:	00912c23          	sw	s1,24(sp)
800017a8:	00058313          	mv	t1,a1
800017ac:	00040493          	mv	s1,s0
800017b0:	08041a63          	bnez	s0,80001844 <__udivmoddi4+0x104>
800017b4:	22068e63          	beqz	a3,800019f0 <__udivmoddi4+0x2b0>
800017b8:	2c050663          	beqz	a0,80001a84 <__udivmoddi4+0x344>
800017bc:	fff68793          	addi	a5,a3,-1
800017c0:	00d7f5b3          	and	a1,a5,a3
800017c4:	32058063          	beqz	a1,80001ae4 <__udivmoddi4+0x3a4>
800017c8:	00a12823          	sw	a0,16(sp)
800017cc:	00068513          	mv	a0,a3
800017d0:	00612a23          	sw	t1,20(sp)
800017d4:	00c12623          	sw	a2,12(sp)
800017d8:	00612023          	sw	t1,0(sp)
800017dc:	00d12423          	sw	a3,8(sp)
800017e0:	3a0000ef          	jal	80001b80 <__clzsi2>
800017e4:	00012703          	lw	a4,0(sp)
800017e8:	00050793          	mv	a5,a0
800017ec:	00f12023          	sw	a5,0(sp)
800017f0:	00070513          	mv	a0,a4
800017f4:	00e12223          	sw	a4,4(sp)
800017f8:	388000ef          	jal	80001b80 <__clzsi2>
800017fc:	00012783          	lw	a5,0(sp)
80001800:	00412703          	lw	a4,4(sp)
80001804:	00812683          	lw	a3,8(sp)
80001808:	40a78533          	sub	a0,a5,a0
8000180c:	01e00793          	li	a5,30
80001810:	00c12603          	lw	a2,12(sp)
80001814:	01012283          	lw	t0,16(sp)
80001818:	01412303          	lw	t1,20(sp)
8000181c:	1ca7ec63          	bltu	a5,a0,800019f4 <__udivmoddi4+0x2b4>
80001820:	00150393          	addi	t2,a0,1
80001824:	02000513          	li	a0,32
80001828:	40750533          	sub	a0,a0,t2
8000182c:	00a71333          	sll	t1,a4,a0
80001830:	0072d5b3          	srl	a1,t0,t2
80001834:	007757b3          	srl	a5,a4,t2
80001838:	00a29533          	sll	a0,t0,a0
8000183c:	00b36733          	or	a4,t1,a1
80001840:	0800006f          	j	800018c0 <__udivmoddi4+0x180>
80001844:	14068663          	beqz	a3,80001990 <__udivmoddi4+0x250>
80001848:	00a12423          	sw	a0,8(sp)
8000184c:	00068513          	mv	a0,a3
80001850:	00c12223          	sw	a2,4(sp)
80001854:	00b12623          	sw	a1,12(sp)
80001858:	00b12023          	sw	a1,0(sp)
8000185c:	00d12823          	sw	a3,16(sp)
80001860:	320000ef          	jal	80001b80 <__clzsi2>
80001864:	00012703          	lw	a4,0(sp)
80001868:	00050493          	mv	s1,a0
8000186c:	00070513          	mv	a0,a4
80001870:	310000ef          	jal	80001b80 <__clzsi2>
80001874:	40a48533          	sub	a0,s1,a0
80001878:	01f00793          	li	a5,31
8000187c:	00412603          	lw	a2,4(sp)
80001880:	00812283          	lw	t0,8(sp)
80001884:	00c12303          	lw	t1,12(sp)
80001888:	16a7e663          	bltu	a5,a0,800019f4 <__udivmoddi4+0x2b4>
8000188c:	00150393          	addi	t2,a0,1
80001890:	02000793          	li	a5,32
80001894:	00012703          	lw	a4,0(sp)
80001898:	01012683          	lw	a3,16(sp)
8000189c:	00028513          	mv	a0,t0
800018a0:	26f38a63          	beq	t2,a5,80001b14 <__udivmoddi4+0x3d4>
800018a4:	407785b3          	sub	a1,a5,t2
800018a8:	0072d333          	srl	t1,t0,t2
800018ac:	00b712b3          	sll	t0,a4,a1
800018b0:	007757b3          	srl	a5,a4,t2
800018b4:	00b51533          	sll	a0,a0,a1
800018b8:	0062e733          	or	a4,t0,t1
800018bc:	00000493          	li	s1,0
800018c0:	00c12223          	sw	a2,4(sp)
800018c4:	00068613          	mv	a2,a3
800018c8:	00012023          	sw	zero,0(sp)
800018cc:	00078693          	mv	a3,a5
800018d0:	00060793          	mv	a5,a2
800018d4:	01f55593          	srli	a1,a0,0x1f
800018d8:	00171613          	slli	a2,a4,0x1
800018dc:	00b66633          	or	a2,a2,a1
800018e0:	01f75713          	srli	a4,a4,0x1f
800018e4:	00169693          	slli	a3,a3,0x1
800018e8:	00e6e6b3          	or	a3,a3,a4
800018ec:	40c40733          	sub	a4,s0,a2
800018f0:	40d78333          	sub	t1,a5,a3
800018f4:	00e435b3          	sltu	a1,s0,a4
800018f8:	40b305b3          	sub	a1,t1,a1
800018fc:	00173713          	seqz	a4,a4
80001900:	40e585b3          	sub	a1,a1,a4
80001904:	41f5d313          	srai	t1,a1,0x1f
80001908:	00837733          	and	a4,t1,s0
8000190c:	00f37333          	and	t1,t1,a5
80001910:	406686b3          	sub	a3,a3,t1
80001914:	00012303          	lw	t1,0(sp)
80001918:	40e60733          	sub	a4,a2,a4
8000191c:	01f5d593          	srli	a1,a1,0x1f
80001920:	01f4d293          	srli	t0,s1,0x1f
80001924:	00151513          	slli	a0,a0,0x1
80001928:	00149493          	slli	s1,s1,0x1
8000192c:	00e63633          	sltu	a2,a2,a4
80001930:	fff38393          	addi	t2,t2,-1
80001934:	00b12023          	sw	a1,0(sp)
80001938:	0064e4b3          	or	s1,s1,t1
8000193c:	00556533          	or	a0,a0,t0
80001940:	40c686b3          	sub	a3,a3,a2
80001944:	f80398e3          	bnez	t2,800018d4 <__udivmoddi4+0x194>
80001948:	00412603          	lw	a2,4(sp)
8000194c:	00060663          	beqz	a2,80001958 <__udivmoddi4+0x218>
80001950:	00e62023          	sw	a4,0(a2)
80001954:	00d62223          	sw	a3,4(a2)
80001958:	00012703          	lw	a4,0(sp)
8000195c:	01f4d313          	srli	t1,s1,0x1f
80001960:	00151793          	slli	a5,a0,0x1
80001964:	00149513          	slli	a0,s1,0x1
80001968:	00e56533          	or	a0,a0,a4
8000196c:	01812483          	lw	s1,24(sp)
80001970:	00f365b3          	or	a1,t1,a5
80001974:	e21ff06f          	j	80001794 <__udivmoddi4+0x54>
80001978:	00070663          	beqz	a4,80001984 <__udivmoddi4+0x244>
8000197c:	00a62023          	sw	a0,0(a2)
80001980:	00072223          	sw	zero,4(a4)
80001984:	00000513          	li	a0,0
80001988:	00000593          	li	a1,0
8000198c:	e09ff06f          	j	80001794 <__udivmoddi4+0x54>
80001990:	fff40593          	addi	a1,s0,-1
80001994:	0085f533          	and	a0,a1,s0
80001998:	06051863          	bnez	a0,80001a08 <__udivmoddi4+0x2c8>
8000199c:	00060863          	beqz	a2,800019ac <__udivmoddi4+0x26c>
800019a0:	0055f5b3          	and	a1,a1,t0
800019a4:	00b62023          	sw	a1,0(a2)
800019a8:	00062223          	sw	zero,4(a2)
800019ac:	00100793          	li	a5,1
800019b0:	10f40e63          	beq	s0,a5,80001acc <__udivmoddi4+0x38c>
800019b4:	00040513          	mv	a0,s0
800019b8:	00612223          	sw	t1,4(sp)
800019bc:	00512023          	sw	t0,0(sp)
800019c0:	250000ef          	jal	80001c10 <__ctzsi2>
800019c4:	00412303          	lw	t1,4(sp)
800019c8:	00012283          	lw	t0,0(sp)
800019cc:	02000713          	li	a4,32
800019d0:	40a70733          	sub	a4,a4,a0
800019d4:	00050793          	mv	a5,a0
800019d8:	00e31733          	sll	a4,t1,a4
800019dc:	00a2d2b3          	srl	t0,t0,a0
800019e0:	01812483          	lw	s1,24(sp)
800019e4:	00576533          	or	a0,a4,t0
800019e8:	00f355b3          	srl	a1,t1,a5
800019ec:	da9ff06f          	j	80001794 <__udivmoddi4+0x54>
800019f0:	00100073          	ebreak
800019f4:	0e060463          	beqz	a2,80001adc <__udivmoddi4+0x39c>
800019f8:	01812483          	lw	s1,24(sp)
800019fc:	00562023          	sw	t0,0(a2)
80001a00:	00662223          	sw	t1,4(a2)
80001a04:	f81ff06f          	j	80001984 <__udivmoddi4+0x244>
80001a08:	00040513          	mv	a0,s0
80001a0c:	00d12823          	sw	a3,16(sp)
80001a10:	00512623          	sw	t0,12(sp)
80001a14:	00c12423          	sw	a2,8(sp)
80001a18:	00612023          	sw	t1,0(sp)
80001a1c:	00d12223          	sw	a3,4(sp)
80001a20:	160000ef          	jal	80001b80 <__clzsi2>
80001a24:	00012703          	lw	a4,0(sp)
80001a28:	00050493          	mv	s1,a0
80001a2c:	00070513          	mv	a0,a4
80001a30:	150000ef          	jal	80001b80 <__clzsi2>
80001a34:	00c12283          	lw	t0,12(sp)
80001a38:	40a485b3          	sub	a1,s1,a0
80001a3c:	02158393          	addi	t2,a1,33
80001a40:	02000313          	li	t1,32
80001a44:	00012703          	lw	a4,0(sp)
80001a48:	00412783          	lw	a5,4(sp)
80001a4c:	00812603          	lw	a2,8(sp)
80001a50:	01012683          	lw	a3,16(sp)
80001a54:	00028513          	mv	a0,t0
80001a58:	00000493          	li	s1,0
80001a5c:	e66382e3          	beq	t2,t1,800018c0 <__udivmoddi4+0x180>
80001a60:	01f00293          	li	t0,31
80001a64:	0a72ee63          	bltu	t0,t2,80001b20 <__udivmoddi4+0x3e0>
80001a68:	40730333          	sub	t1,t1,t2
80001a6c:	007555b3          	srl	a1,a0,t2
80001a70:	007757b3          	srl	a5,a4,t2
80001a74:	00671733          	sll	a4,a4,t1
80001a78:	00b76733          	or	a4,a4,a1
80001a7c:	00651533          	sll	a0,a0,t1
80001a80:	e41ff06f          	j	800018c0 <__udivmoddi4+0x180>
80001a84:	00c12023          	sw	a2,0(sp)
80001a88:	02060663          	beqz	a2,80001ab4 <__udivmoddi4+0x374>
80001a8c:	00068593          	mv	a1,a3
80001a90:	00030513          	mv	a0,t1
80001a94:	00d12423          	sw	a3,8(sp)
80001a98:	00612223          	sw	t1,4(sp)
80001a9c:	25c000ef          	jal	80001cf8 <__umodsi3>
80001aa0:	00012603          	lw	a2,0(sp)
80001aa4:	00812683          	lw	a3,8(sp)
80001aa8:	00412303          	lw	t1,4(sp)
80001aac:	00062023          	sw	zero,0(a2)
80001ab0:	00a62223          	sw	a0,4(a2)
80001ab4:	00068593          	mv	a1,a3
80001ab8:	00030513          	mv	a0,t1
80001abc:	1f4000ef          	jal	80001cb0 <__hidden___udivsi3>
80001ac0:	00000593          	li	a1,0
80001ac4:	01812483          	lw	s1,24(sp)
80001ac8:	ccdff06f          	j	80001794 <__udivmoddi4+0x54>
80001acc:	01812483          	lw	s1,24(sp)
80001ad0:	00028513          	mv	a0,t0
80001ad4:	00030593          	mv	a1,t1
80001ad8:	cbdff06f          	j	80001794 <__udivmoddi4+0x54>
80001adc:	01812483          	lw	s1,24(sp)
80001ae0:	ea5ff06f          	j	80001984 <__udivmoddi4+0x244>
80001ae4:	00060863          	beqz	a2,80001af4 <__udivmoddi4+0x3b4>
80001ae8:	0067f7b3          	and	a5,a5,t1
80001aec:	00a62023          	sw	a0,0(a2)
80001af0:	00f62223          	sw	a5,4(a2)
80001af4:	00068513          	mv	a0,a3
80001af8:	00612023          	sw	t1,0(sp)
80001afc:	114000ef          	jal	80001c10 <__ctzsi2>
80001b00:	00012303          	lw	t1,0(sp)
80001b04:	01812483          	lw	s1,24(sp)
80001b08:	00000593          	li	a1,0
80001b0c:	00a35533          	srl	a0,t1,a0
80001b10:	c85ff06f          	j	80001794 <__udivmoddi4+0x54>
80001b14:	00000793          	li	a5,0
80001b18:	00000493          	li	s1,0
80001b1c:	da5ff06f          	j	800018c0 <__udivmoddi4+0x180>
80001b20:	04000493          	li	s1,64
80001b24:	407484b3          	sub	s1,s1,t2
80001b28:	00158593          	addi	a1,a1,1
80001b2c:	009712b3          	sll	t0,a4,s1
80001b30:	00b55333          	srl	t1,a0,a1
80001b34:	009514b3          	sll	s1,a0,s1
80001b38:	00b75733          	srl	a4,a4,a1
80001b3c:	0062e533          	or	a0,t0,t1
80001b40:	d81ff06f          	j	800018c0 <__udivmoddi4+0x180>

80001b44 <__udivdi3>:
80001b44:	00000713          	li	a4,0
80001b48:	bf9ff06f          	j	80001740 <__udivmoddi4>

80001b4c <__umoddi3>:
80001b4c:	fe810113          	addi	sp,sp,-24
80001b50:	00812823          	sw	s0,16(sp)
80001b54:	00710413          	addi	s0,sp,7
80001b58:	ff847413          	andi	s0,s0,-8
80001b5c:	00040713          	mv	a4,s0
80001b60:	00112a23          	sw	ra,20(sp)
80001b64:	bddff0ef          	jal	80001740 <__udivmoddi4>
80001b68:	00042503          	lw	a0,0(s0)
80001b6c:	00442583          	lw	a1,4(s0)
80001b70:	01412083          	lw	ra,20(sp)
80001b74:	01012403          	lw	s0,16(sp)
80001b78:	01810113          	addi	sp,sp,24
80001b7c:	00008067          	ret

80001b80 <__clzsi2>:
80001b80:	000105b7          	lui	a1,0x10
80001b84:	00b535b3          	sltu	a1,a0,a1
80001b88:	00459593          	slli	a1,a1,0x4
80001b8c:	01000793          	li	a5,16
80001b90:	40b787b3          	sub	a5,a5,a1
80001b94:	00010737          	lui	a4,0x10
80001b98:	00f557b3          	srl	a5,a0,a5
80001b9c:	f0070713          	addi	a4,a4,-256 # ff00 <_entry_offset+0xff00>
80001ba0:	00e7f733          	and	a4,a5,a4
80001ba4:	00173713          	seqz	a4,a4
80001ba8:	00371713          	slli	a4,a4,0x3
80001bac:	00800693          	li	a3,8
80001bb0:	40e686b3          	sub	a3,a3,a4
80001bb4:	00d7d7b3          	srl	a5,a5,a3
80001bb8:	0f07f693          	andi	a3,a5,240
80001bbc:	0016b693          	seqz	a3,a3
80001bc0:	00269693          	slli	a3,a3,0x2
80001bc4:	00400613          	li	a2,4
80001bc8:	40d60633          	sub	a2,a2,a3
80001bcc:	00c7d7b3          	srl	a5,a5,a2
80001bd0:	00c7f613          	andi	a2,a5,12
80001bd4:	00163613          	seqz	a2,a2
80001bd8:	00200513          	li	a0,2
80001bdc:	00161613          	slli	a2,a2,0x1
80001be0:	40c50333          	sub	t1,a0,a2
80001be4:	0067d7b3          	srl	a5,a5,t1
80001be8:	0017d313          	srli	t1,a5,0x1
80001bec:	00b70733          	add	a4,a4,a1
80001bf0:	00137593          	andi	a1,t1,1
80001bf4:	00e686b3          	add	a3,a3,a4
80001bf8:	40f50533          	sub	a0,a0,a5
80001bfc:	00058463          	beqz	a1,80001c04 <__clzsi2+0x84>
80001c00:	00000513          	li	a0,0
80001c04:	00d606b3          	add	a3,a2,a3
80001c08:	00d50533          	add	a0,a0,a3
80001c0c:	00008067          	ret

80001c10 <__ctzsi2>:
80001c10:	01051593          	slli	a1,a0,0x10
80001c14:	0105d593          	srli	a1,a1,0x10
80001c18:	0015b593          	seqz	a1,a1
80001c1c:	00459593          	slli	a1,a1,0x4
80001c20:	00b557b3          	srl	a5,a0,a1
80001c24:	0ff7f613          	zext.b	a2,a5
80001c28:	00163613          	seqz	a2,a2
80001c2c:	00361613          	slli	a2,a2,0x3
80001c30:	00c7d7b3          	srl	a5,a5,a2
80001c34:	00f7f693          	andi	a3,a5,15
80001c38:	0016b693          	seqz	a3,a3
80001c3c:	00269693          	slli	a3,a3,0x2
80001c40:	00d7d7b3          	srl	a5,a5,a3
80001c44:	0037f713          	andi	a4,a5,3
80001c48:	00173713          	seqz	a4,a4
80001c4c:	00171713          	slli	a4,a4,0x1
80001c50:	00e7d7b3          	srl	a5,a5,a4
80001c54:	0017d513          	srli	a0,a5,0x1
80001c58:	fff7c793          	not	a5,a5
80001c5c:	00b60633          	add	a2,a2,a1
80001c60:	0017f793          	andi	a5,a5,1
80001c64:	00157593          	andi	a1,a0,1
80001c68:	00200513          	li	a0,2
80001c6c:	40b50533          	sub	a0,a0,a1
80001c70:	00c686b3          	add	a3,a3,a2
80001c74:	40f007b3          	neg	a5,a5
80001c78:	00f577b3          	and	a5,a0,a5
80001c7c:	00d70533          	add	a0,a4,a3
80001c80:	00a78533          	add	a0,a5,a0
80001c84:	00008067          	ret

80001c88 <memset>:
80001c88:	0ff5f593          	zext.b	a1,a1
80001c8c:	00050793          	mv	a5,a0
80001c90:	00a60733          	add	a4,a2,a0
80001c94:	00060863          	beqz	a2,80001ca4 <memset+0x1c>
80001c98:	00b78023          	sb	a1,0(a5)
80001c9c:	00178793          	addi	a5,a5,1
80001ca0:	fee79ce3          	bne	a5,a4,80001c98 <memset+0x10>
80001ca4:	00008067          	ret

80001ca8 <__divsi3>:
80001ca8:	06054063          	bltz	a0,80001d08 <__umodsi3+0x10>
80001cac:	0605c663          	bltz	a1,80001d18 <__umodsi3+0x20>

80001cb0 <__hidden___udivsi3>:
80001cb0:	00058613          	mv	a2,a1
80001cb4:	00050593          	mv	a1,a0
80001cb8:	fff00513          	li	a0,-1
80001cbc:	02060c63          	beqz	a2,80001cf4 <__hidden___udivsi3+0x44>
80001cc0:	00100693          	li	a3,1
80001cc4:	00b67a63          	bgeu	a2,a1,80001cd8 <__hidden___udivsi3+0x28>
80001cc8:	00c05863          	blez	a2,80001cd8 <__hidden___udivsi3+0x28>
80001ccc:	00161613          	slli	a2,a2,0x1
80001cd0:	00169693          	slli	a3,a3,0x1
80001cd4:	feb66ae3          	bltu	a2,a1,80001cc8 <__hidden___udivsi3+0x18>
80001cd8:	00000513          	li	a0,0
80001cdc:	00c5e663          	bltu	a1,a2,80001ce8 <__hidden___udivsi3+0x38>
80001ce0:	40c585b3          	sub	a1,a1,a2
80001ce4:	00d56533          	or	a0,a0,a3
80001ce8:	0016d693          	srli	a3,a3,0x1
80001cec:	00165613          	srli	a2,a2,0x1
80001cf0:	fe0696e3          	bnez	a3,80001cdc <__hidden___udivsi3+0x2c>
80001cf4:	00008067          	ret

80001cf8 <__umodsi3>:
80001cf8:	00008293          	mv	t0,ra
80001cfc:	fb5ff0ef          	jal	80001cb0 <__hidden___udivsi3>
80001d00:	00058513          	mv	a0,a1
80001d04:	00028067          	jr	t0
80001d08:	40a00533          	neg	a0,a0
80001d0c:	00b04863          	bgtz	a1,80001d1c <__umodsi3+0x24>
80001d10:	40b005b3          	neg	a1,a1
80001d14:	f9dff06f          	j	80001cb0 <__hidden___udivsi3>
80001d18:	40b005b3          	neg	a1,a1
80001d1c:	00008293          	mv	t0,ra
80001d20:	f91ff0ef          	jal	80001cb0 <__hidden___udivsi3>
80001d24:	40a00533          	neg	a0,a0
80001d28:	00028067          	jr	t0

80001d2c <__modsi3>:
80001d2c:	00008293          	mv	t0,ra
80001d30:	0005ca63          	bltz	a1,80001d44 <__modsi3+0x18>
80001d34:	00054c63          	bltz	a0,80001d4c <__modsi3+0x20>
80001d38:	f79ff0ef          	jal	80001cb0 <__hidden___udivsi3>
80001d3c:	00058513          	mv	a0,a1
80001d40:	00028067          	jr	t0
80001d44:	40b005b3          	neg	a1,a1
80001d48:	fe0558e3          	bgez	a0,80001d38 <__modsi3+0xc>
80001d4c:	40a00533          	neg	a0,a0
80001d50:	f61ff0ef          	jal	80001cb0 <__hidden___udivsi3>
80001d54:	40b00533          	neg	a0,a1
80001d58:	00028067          	jr	t0
