
/home/freeb1e/pipeline/RV32-pipeline/tests/build/if-else-riscv32e-npc.elf:     file format elf32-littleriscv


Disassembly of section .text:

80000000 <_start>:
80000000:	00000413          	li	s0,0
80000004:	00009117          	auipc	sp,0x9
80000008:	ffc10113          	addi	sp,sp,-4 # 80009000 <_end>
8000000c:	0c4000ef          	jal	800000d0 <_trm_init>

80000010 <check>:
80000010:	00050463          	beqz	a0,80000018 <check+0x8>
80000014:	00008067          	ret
80000018:	ffc10113          	addi	sp,sp,-4
8000001c:	00100513          	li	a0,1
80000020:	00112023          	sw	ra,0(sp)
80000024:	0a0000ef          	jal	800000c4 <halt>

80000028 <main>:
80000028:	ff410113          	addi	sp,sp,-12
8000002c:	00812223          	sw	s0,4(sp)
80000030:	00912023          	sw	s1,0(sp)
80000034:	00112423          	sw	ra,8(sp)
80000038:	00000497          	auipc	s1,0x0
8000003c:	13048493          	addi	s1,s1,304 # 80000168 <test_data>
80000040:	00000417          	auipc	s0,0x0
80000044:	0f040413          	addi	s0,s0,240 # 80000130 <ans>
80000048:	0004a703          	lw	a4,0(s1)
8000004c:	1f400613          	li	a2,500
80000050:	12c00593          	li	a1,300
80000054:	09600793          	li	a5,150
80000058:	02e64463          	blt	a2,a4,80000080 <main+0x58>
8000005c:	03200513          	li	a0,50
80000060:	00e527b3          	slt	a5,a0,a4
80000064:	40f00633          	neg	a2,a5
80000068:	06400793          	li	a5,100
8000006c:	00078313          	mv	t1,a5
80000070:	00e5c863          	blt	a1,a4,80000080 <main+0x58>
80000074:	04b00793          	li	a5,75
80000078:	00e34463          	blt	t1,a4,80000080 <main+0x58>
8000007c:	00c577b3          	and	a5,a0,a2
80000080:	00042503          	lw	a0,0(s0)
80000084:	00448493          	addi	s1,s1,4
80000088:	00440413          	addi	s0,s0,4
8000008c:	40f50533          	sub	a0,a0,a5
80000090:	00153513          	seqz	a0,a0
80000094:	f7dff0ef          	jal	80000010 <check>
80000098:	00000797          	auipc	a5,0x0
8000009c:	10878793          	addi	a5,a5,264 # 800001a0 <_bss_start>
800000a0:	faf494e3          	bne	s1,a5,80000048 <main+0x20>
800000a4:	00100513          	li	a0,1
800000a8:	f69ff0ef          	jal	80000010 <check>
800000ac:	00812083          	lw	ra,8(sp)
800000b0:	00412403          	lw	s0,4(sp)
800000b4:	00012483          	lw	s1,0(sp)
800000b8:	00000513          	li	a0,0
800000bc:	00c10113          	addi	sp,sp,12
800000c0:	00008067          	ret

800000c4 <halt>:
800000c4:	00050513          	mv	a0,a0
800000c8:	00100073          	ebreak
800000cc:	0000006f          	j	800000cc <halt+0x8>

800000d0 <_trm_init>:
800000d0:	ffc10113          	addi	sp,sp,-4
800000d4:	00000517          	auipc	a0,0x0
800000d8:	01c50513          	addi	a0,a0,28 # 800000f0 <_etext>
800000dc:	00112023          	sw	ra,0(sp)
800000e0:	f49ff0ef          	jal	80000028 <main>
800000e4:	00050513          	mv	a0,a0
800000e8:	00100073          	ebreak
800000ec:	0000006f          	j	800000ec <_trm_init+0x1c>
