
/home/freeb1e/pipeline/RV32-pipeline/tests/build/mersenne-riscv32e-npc.elf:     file format elf32-littleriscv


Disassembly of section .text:

80000000 <_start>:
80000000:	00000413          	li	s0,0
80000004:	00009117          	auipc	sp,0x9
80000008:	ffc10113          	addi	sp,sp,-4 # 80009000 <_end>
8000000c:	148000ef          	jal	80000154 <_trm_init>

80000010 <check>:
80000010:	00050463          	beqz	a0,80000018 <check+0x8>
80000014:	00008067          	ret
80000018:	ffc10113          	addi	sp,sp,-4
8000001c:	00100513          	li	a0,1
80000020:	00112023          	sw	ra,0(sp)
80000024:	124000ef          	jal	80000148 <halt>

80000028 <main>:
80000028:	fe810113          	addi	sp,sp,-24
8000002c:	00812823          	sw	s0,16(sp)
80000030:	00912623          	sw	s1,12(sp)
80000034:	00112a23          	sw	ra,20(sp)
80000038:	00500413          	li	s0,5
8000003c:	3a100493          	li	s1,929
80000040:	0100006f          	j	80000050 <main+0x28>
80000044:	08940c63          	beq	s0,s1,800000dc <main+0xb4>
80000048:	1b0000ef          	jal	800001f8 <__modsi3>
8000004c:	08050863          	beqz	a0,800000dc <main+0xb4>
80000050:	00812023          	sw	s0,0(sp)
80000054:	00640413          	addi	s0,s0,6
80000058:	00040593          	mv	a1,s0
8000005c:	00040513          	mv	a0,s0
80000060:	1c8000ef          	jal	80000228 <__mulsi3>
80000064:	00012703          	lw	a4,0(sp)
80000068:	00050793          	mv	a5,a0
8000006c:	3a100513          	li	a0,929
80000070:	00870593          	addi	a1,a4,8
80000074:	fcf4d8e3          	bge	s1,a5,80000044 <main+0x1c>
80000078:	01600793          	li	a5,22
8000007c:	00a12223          	sw	a0,4(sp)
80000080:	00412703          	lw	a4,4(sp)
80000084:	fff78793          	addi	a5,a5,-1
80000088:	00171713          	slli	a4,a4,0x1
8000008c:	00e12223          	sw	a4,4(sp)
80000090:	fe0798e3          	bnez	a5,80000080 <main+0x58>
80000094:	74300413          	li	s0,1859
80000098:	00012023          	sw	zero,0(sp)
8000009c:	00412483          	lw	s1,4(sp)
800000a0:	00812423          	sw	s0,8(sp)
800000a4:	00100613          	li	a2,1
800000a8:	41f65693          	srai	a3,a2,0x1f
800000ac:	00068593          	mv	a1,a3
800000b0:	00060513          	mv	a0,a2
800000b4:	198000ef          	jal	8000024c <__muldi3>
800000b8:	00012683          	lw	a3,0(sp)
800000bc:	00040613          	mv	a2,s0
800000c0:	640000ef          	jal	80000700 <__moddi3>
800000c4:	00050613          	mv	a2,a0
800000c8:	0204c863          	bltz	s1,800000f8 <main+0xd0>
800000cc:	00a45463          	bge	s0,a0,800000d4 <main+0xac>
800000d0:	40850633          	sub	a2,a0,s0
800000d4:	00149493          	slli	s1,s1,0x1
800000d8:	fd1ff06f          	j	800000a8 <main+0x80>
800000dc:	00100493          	li	s1,1
800000e0:	01412083          	lw	ra,20(sp)
800000e4:	01012403          	lw	s0,16(sp)
800000e8:	00048513          	mv	a0,s1
800000ec:	00c12483          	lw	s1,12(sp)
800000f0:	01810113          	addi	sp,sp,24
800000f4:	00008067          	ret
800000f8:	00151613          	slli	a2,a0,0x1
800000fc:	00149493          	slli	s1,s1,0x1
80000100:	00c45463          	bge	s0,a2,80000108 <main+0xe0>
80000104:	40860633          	sub	a2,a2,s0
80000108:	fa0490e3          	bnez	s1,800000a8 <main+0x80>
8000010c:	00012783          	lw	a5,0(sp)
80000110:	74240713          	addi	a4,s0,1858
80000114:	00873433          	sltu	s0,a4,s0
80000118:	00f407b3          	add	a5,s0,a5
8000011c:	00f12023          	sw	a5,0(sp)
80000120:	00100793          	li	a5,1
80000124:	00070413          	mv	s0,a4
80000128:	f6f61ae3          	bne	a2,a5,8000009c <main+0x74>
8000012c:	00812783          	lw	a5,8(sp)
80000130:	ffffd737          	lui	a4,0xffffd
80000134:	d3170713          	addi	a4,a4,-719 # ffffcd31 <_end+0x7fff3d31>
80000138:	00e78533          	add	a0,a5,a4
8000013c:	00153513          	seqz	a0,a0
80000140:	ed1ff0ef          	jal	80000010 <check>
80000144:	f9dff06f          	j	800000e0 <main+0xb8>

80000148 <halt>:
80000148:	00050513          	mv	a0,a0
8000014c:	00100073          	ebreak
80000150:	0000006f          	j	80000150 <halt+0x8>

80000154 <_trm_init>:
80000154:	ffc10113          	addi	sp,sp,-4
80000158:	00000517          	auipc	a0,0x0
8000015c:	73c50513          	addi	a0,a0,1852 # 80000894 <_etext>
80000160:	00112023          	sw	ra,0(sp)
80000164:	ec5ff0ef          	jal	80000028 <main>
80000168:	00050513          	mv	a0,a0
8000016c:	00100073          	ebreak
80000170:	0000006f          	j	80000170 <_trm_init+0x1c>

80000174 <__divsi3>:
80000174:	06054063          	bltz	a0,800001d4 <__umodsi3+0x10>
80000178:	0605c663          	bltz	a1,800001e4 <__umodsi3+0x20>

8000017c <__hidden___udivsi3>:
8000017c:	00058613          	mv	a2,a1
80000180:	00050593          	mv	a1,a0
80000184:	fff00513          	li	a0,-1
80000188:	02060c63          	beqz	a2,800001c0 <__hidden___udivsi3+0x44>
8000018c:	00100693          	li	a3,1
80000190:	00b67a63          	bgeu	a2,a1,800001a4 <__hidden___udivsi3+0x28>
80000194:	00c05863          	blez	a2,800001a4 <__hidden___udivsi3+0x28>
80000198:	00161613          	slli	a2,a2,0x1
8000019c:	00169693          	slli	a3,a3,0x1
800001a0:	feb66ae3          	bltu	a2,a1,80000194 <__hidden___udivsi3+0x18>
800001a4:	00000513          	li	a0,0
800001a8:	00c5e663          	bltu	a1,a2,800001b4 <__hidden___udivsi3+0x38>
800001ac:	40c585b3          	sub	a1,a1,a2
800001b0:	00d56533          	or	a0,a0,a3
800001b4:	0016d693          	srli	a3,a3,0x1
800001b8:	00165613          	srli	a2,a2,0x1
800001bc:	fe0696e3          	bnez	a3,800001a8 <__hidden___udivsi3+0x2c>
800001c0:	00008067          	ret

800001c4 <__umodsi3>:
800001c4:	00008293          	mv	t0,ra
800001c8:	fb5ff0ef          	jal	8000017c <__hidden___udivsi3>
800001cc:	00058513          	mv	a0,a1
800001d0:	00028067          	jr	t0
800001d4:	40a00533          	neg	a0,a0
800001d8:	00b04863          	bgtz	a1,800001e8 <__umodsi3+0x24>
800001dc:	40b005b3          	neg	a1,a1
800001e0:	f9dff06f          	j	8000017c <__hidden___udivsi3>
800001e4:	40b005b3          	neg	a1,a1
800001e8:	00008293          	mv	t0,ra
800001ec:	f91ff0ef          	jal	8000017c <__hidden___udivsi3>
800001f0:	40a00533          	neg	a0,a0
800001f4:	00028067          	jr	t0

800001f8 <__modsi3>:
800001f8:	00008293          	mv	t0,ra
800001fc:	0005ca63          	bltz	a1,80000210 <__modsi3+0x18>
80000200:	00054c63          	bltz	a0,80000218 <__modsi3+0x20>
80000204:	f79ff0ef          	jal	8000017c <__hidden___udivsi3>
80000208:	00058513          	mv	a0,a1
8000020c:	00028067          	jr	t0
80000210:	40b005b3          	neg	a1,a1
80000214:	fe0558e3          	bgez	a0,80000204 <__modsi3+0xc>
80000218:	40a00533          	neg	a0,a0
8000021c:	f61ff0ef          	jal	8000017c <__hidden___udivsi3>
80000220:	40b00533          	neg	a0,a1
80000224:	00028067          	jr	t0

80000228 <__mulsi3>:
80000228:	00050613          	mv	a2,a0
8000022c:	00000513          	li	a0,0
80000230:	0015f693          	andi	a3,a1,1
80000234:	00068463          	beqz	a3,8000023c <__mulsi3+0x14>
80000238:	00c50533          	add	a0,a0,a2
8000023c:	0015d593          	srli	a1,a1,0x1
80000240:	00161613          	slli	a2,a2,0x1
80000244:	fe0596e3          	bnez	a1,80000230 <__mulsi3+0x8>
80000248:	00008067          	ret

8000024c <__muldi3>:
8000024c:	fe810113          	addi	sp,sp,-24
80000250:	00050313          	mv	t1,a0
80000254:	00060513          	mv	a0,a2
80000258:	00058613          	mv	a2,a1
8000025c:	00068293          	mv	t0,a3
80000260:	00112a23          	sw	ra,20(sp)
80000264:	00812823          	sw	s0,16(sp)
80000268:	00912623          	sw	s1,12(sp)
8000026c:	00030713          	mv	a4,t1
80000270:	00050693          	mv	a3,a0
80000274:	00000793          	li	a5,0
80000278:	00000593          	li	a1,0
8000027c:	00000393          	li	t2,0
80000280:	00612023          	sw	t1,0(sp)
80000284:	00c12223          	sw	a2,4(sp)
80000288:	00a12423          	sw	a0,8(sp)
8000028c:	00770633          	add	a2,a4,t2
80000290:	0016f313          	andi	t1,a3,1
80000294:	00f58433          	add	s0,a1,a5
80000298:	01f75513          	srli	a0,a4,0x1f
8000029c:	0016d693          	srli	a3,a3,0x1
800002a0:	00e634b3          	sltu	s1,a2,a4
800002a4:	00179793          	slli	a5,a5,0x1
800002a8:	00030663          	beqz	t1,800002b4 <__muldi3+0x68>
800002ac:	00060393          	mv	t2,a2
800002b0:	008485b3          	add	a1,s1,s0
800002b4:	00171713          	slli	a4,a4,0x1
800002b8:	00a7e7b3          	or	a5,a5,a0
800002bc:	fc0698e3          	bnez	a3,8000028c <__muldi3+0x40>
800002c0:	00412603          	lw	a2,4(sp)
800002c4:	00012303          	lw	t1,0(sp)
800002c8:	00812503          	lw	a0,8(sp)
800002cc:	00058793          	mv	a5,a1
800002d0:	00060863          	beqz	a2,800002e0 <__muldi3+0x94>
800002d4:	00060593          	mv	a1,a2
800002d8:	f51ff0ef          	jal	80000228 <__mulsi3>
800002dc:	00f507b3          	add	a5,a0,a5
800002e0:	00028a63          	beqz	t0,800002f4 <__muldi3+0xa8>
800002e4:	00030513          	mv	a0,t1
800002e8:	00028593          	mv	a1,t0
800002ec:	f3dff0ef          	jal	80000228 <__mulsi3>
800002f0:	00f507b3          	add	a5,a0,a5
800002f4:	01412083          	lw	ra,20(sp)
800002f8:	01012403          	lw	s0,16(sp)
800002fc:	00c12483          	lw	s1,12(sp)
80000300:	00038513          	mv	a0,t2
80000304:	00078593          	mv	a1,a5
80000308:	01810113          	addi	sp,sp,24
8000030c:	00008067          	ret

80000310 <__udivmoddi4>:
80000310:	fe010113          	addi	sp,sp,-32
80000314:	00912a23          	sw	s1,20(sp)
80000318:	00058793          	mv	a5,a1
8000031c:	00112e23          	sw	ra,28(sp)
80000320:	00068493          	mv	s1,a3
80000324:	00050293          	mv	t0,a0
80000328:	00060593          	mv	a1,a2
8000032c:	04079663          	bnez	a5,80000378 <__udivmoddi4+0x68>
80000330:	20069463          	bnez	a3,80000538 <__udivmoddi4+0x228>
80000334:	00e12023          	sw	a4,0(sp)
80000338:	02070263          	beqz	a4,8000035c <__udivmoddi4+0x4c>
8000033c:	00a12423          	sw	a0,8(sp)
80000340:	00c12223          	sw	a2,4(sp)
80000344:	e81ff0ef          	jal	800001c4 <__umodsi3>
80000348:	00012703          	lw	a4,0(sp)
8000034c:	00812283          	lw	t0,8(sp)
80000350:	00412583          	lw	a1,4(sp)
80000354:	00072223          	sw	zero,4(a4)
80000358:	00a72023          	sw	a0,0(a4)
8000035c:	00028513          	mv	a0,t0
80000360:	e1dff0ef          	jal	8000017c <__hidden___udivsi3>
80000364:	01c12083          	lw	ra,28(sp)
80000368:	01412483          	lw	s1,20(sp)
8000036c:	00000593          	li	a1,0
80000370:	02010113          	addi	sp,sp,32
80000374:	00008067          	ret
80000378:	00812c23          	sw	s0,24(sp)
8000037c:	00078413          	mv	s0,a5
80000380:	08061463          	bnez	a2,80000408 <__udivmoddi4+0xf8>
80000384:	22068c63          	beqz	a3,800005bc <__udivmoddi4+0x2ac>
80000388:	2c050063          	beqz	a0,80000648 <__udivmoddi4+0x338>
8000038c:	fff68693          	addi	a3,a3,-1
80000390:	0096f633          	and	a2,a3,s1
80000394:	30060663          	beqz	a2,800006a0 <__udivmoddi4+0x390>
80000398:	00a12423          	sw	a0,8(sp)
8000039c:	00048513          	mv	a0,s1
800003a0:	00b12823          	sw	a1,16(sp)
800003a4:	00f12623          	sw	a5,12(sp)
800003a8:	00e12223          	sw	a4,4(sp)
800003ac:	3e0000ef          	jal	8000078c <__clzsi2>
800003b0:	00050693          	mv	a3,a0
800003b4:	00040513          	mv	a0,s0
800003b8:	00d12023          	sw	a3,0(sp)
800003bc:	3d0000ef          	jal	8000078c <__clzsi2>
800003c0:	00012683          	lw	a3,0(sp)
800003c4:	00412703          	lw	a4,4(sp)
800003c8:	00812283          	lw	t0,8(sp)
800003cc:	40a68533          	sub	a0,a3,a0
800003d0:	01e00693          	li	a3,30
800003d4:	00c12783          	lw	a5,12(sp)
800003d8:	01012583          	lw	a1,16(sp)
800003dc:	1ea6e263          	bltu	a3,a0,800005c0 <__udivmoddi4+0x2b0>
800003e0:	00150613          	addi	a2,a0,1
800003e4:	02000793          	li	a5,32
800003e8:	40c787b3          	sub	a5,a5,a2
800003ec:	00c2d6b3          	srl	a3,t0,a2
800003f0:	00f41533          	sll	a0,s0,a5
800003f4:	00f292b3          	sll	t0,t0,a5
800003f8:	00c457b3          	srl	a5,s0,a2
800003fc:	00d56433          	or	s0,a0,a3
80000400:	00000693          	li	a3,0
80000404:	0780006f          	j	8000047c <__udivmoddi4+0x16c>
80000408:	14068a63          	beqz	a3,8000055c <__udivmoddi4+0x24c>
8000040c:	00a12423          	sw	a0,8(sp)
80000410:	00068513          	mv	a0,a3
80000414:	00f12623          	sw	a5,12(sp)
80000418:	00e12223          	sw	a4,4(sp)
8000041c:	00c12823          	sw	a2,16(sp)
80000420:	36c000ef          	jal	8000078c <__clzsi2>
80000424:	00050693          	mv	a3,a0
80000428:	00040513          	mv	a0,s0
8000042c:	00d12023          	sw	a3,0(sp)
80000430:	35c000ef          	jal	8000078c <__clzsi2>
80000434:	00012683          	lw	a3,0(sp)
80000438:	00412703          	lw	a4,4(sp)
8000043c:	00812283          	lw	t0,8(sp)
80000440:	40a68533          	sub	a0,a3,a0
80000444:	01f00693          	li	a3,31
80000448:	00c12783          	lw	a5,12(sp)
8000044c:	16a6ea63          	bltu	a3,a0,800005c0 <__udivmoddi4+0x2b0>
80000450:	00150613          	addi	a2,a0,1
80000454:	02000793          	li	a5,32
80000458:	01012583          	lw	a1,16(sp)
8000045c:	26f60a63          	beq	a2,a5,800006d0 <__udivmoddi4+0x3c0>
80000460:	40c786b3          	sub	a3,a5,a2
80000464:	00d41333          	sll	t1,s0,a3
80000468:	00c2d533          	srl	a0,t0,a2
8000046c:	00c457b3          	srl	a5,s0,a2
80000470:	00d292b3          	sll	t0,t0,a3
80000474:	00a36433          	or	s0,t1,a0
80000478:	00000693          	li	a3,0
8000047c:	00012023          	sw	zero,0(sp)
80000480:	00040313          	mv	t1,s0
80000484:	00e12223          	sw	a4,4(sp)
80000488:	01f2d513          	srli	a0,t0,0x1f
8000048c:	00131713          	slli	a4,t1,0x1
80000490:	00a76733          	or	a4,a4,a0
80000494:	00179793          	slli	a5,a5,0x1
80000498:	01f35313          	srli	t1,t1,0x1f
8000049c:	0067e433          	or	s0,a5,t1
800004a0:	40e587b3          	sub	a5,a1,a4
800004a4:	00f5b333          	sltu	t1,a1,a5
800004a8:	40848533          	sub	a0,s1,s0
800004ac:	0017b793          	seqz	a5,a5
800004b0:	40650533          	sub	a0,a0,t1
800004b4:	40f50533          	sub	a0,a0,a5
800004b8:	41f55793          	srai	a5,a0,0x1f
800004bc:	00b7f333          	and	t1,a5,a1
800004c0:	01f6d393          	srli	t2,a3,0x1f
800004c4:	0097f7b3          	and	a5,a5,s1
800004c8:	40670333          	sub	t1,a4,t1
800004cc:	00129293          	slli	t0,t0,0x1
800004d0:	00673733          	sltu	a4,a4,t1
800004d4:	40f407b3          	sub	a5,s0,a5
800004d8:	0072e2b3          	or	t0,t0,t2
800004dc:	00012383          	lw	t2,0(sp)
800004e0:	40e787b3          	sub	a5,a5,a4
800004e4:	01f55713          	srli	a4,a0,0x1f
800004e8:	00169693          	slli	a3,a3,0x1
800004ec:	fff60613          	addi	a2,a2,-1
800004f0:	00e12023          	sw	a4,0(sp)
800004f4:	0076e6b3          	or	a3,a3,t2
800004f8:	f80618e3          	bnez	a2,80000488 <__udivmoddi4+0x178>
800004fc:	00412703          	lw	a4,4(sp)
80000500:	00070663          	beqz	a4,8000050c <__udivmoddi4+0x1fc>
80000504:	00672023          	sw	t1,0(a4)
80000508:	00f72223          	sw	a5,4(a4)
8000050c:	01f6d793          	srli	a5,a3,0x1f
80000510:	00129713          	slli	a4,t0,0x1
80000514:	01812403          	lw	s0,24(sp)
80000518:	01c12083          	lw	ra,28(sp)
8000051c:	00e7e5b3          	or	a1,a5,a4
80000520:	00012783          	lw	a5,0(sp)
80000524:	00169513          	slli	a0,a3,0x1
80000528:	01412483          	lw	s1,20(sp)
8000052c:	00f56533          	or	a0,a0,a5
80000530:	02010113          	addi	sp,sp,32
80000534:	00008067          	ret
80000538:	00070663          	beqz	a4,80000544 <__udivmoddi4+0x234>
8000053c:	00a72023          	sw	a0,0(a4)
80000540:	00072223          	sw	zero,4(a4)
80000544:	00000513          	li	a0,0
80000548:	00000593          	li	a1,0
8000054c:	01c12083          	lw	ra,28(sp)
80000550:	01412483          	lw	s1,20(sp)
80000554:	02010113          	addi	sp,sp,32
80000558:	00008067          	ret
8000055c:	fff60613          	addi	a2,a2,-1
80000560:	00b67533          	and	a0,a2,a1
80000564:	06051863          	bnez	a0,800005d4 <__udivmoddi4+0x2c4>
80000568:	00070863          	beqz	a4,80000578 <__udivmoddi4+0x268>
8000056c:	00567633          	and	a2,a2,t0
80000570:	00c72023          	sw	a2,0(a4)
80000574:	00072223          	sw	zero,4(a4)
80000578:	00100713          	li	a4,1
8000057c:	10e58663          	beq	a1,a4,80000688 <__udivmoddi4+0x378>
80000580:	00058513          	mv	a0,a1
80000584:	00f12223          	sw	a5,4(sp)
80000588:	00512023          	sw	t0,0(sp)
8000058c:	290000ef          	jal	8000081c <__ctzsi2>
80000590:	00412783          	lw	a5,4(sp)
80000594:	00012283          	lw	t0,0(sp)
80000598:	02000693          	li	a3,32
8000059c:	40a686b3          	sub	a3,a3,a0
800005a0:	00050713          	mv	a4,a0
800005a4:	00a2d2b3          	srl	t0,t0,a0
800005a8:	00d796b3          	sll	a3,a5,a3
800005ac:	01812403          	lw	s0,24(sp)
800005b0:	0056e533          	or	a0,a3,t0
800005b4:	00e7d5b3          	srl	a1,a5,a4
800005b8:	f95ff06f          	j	8000054c <__udivmoddi4+0x23c>
800005bc:	00100073          	ebreak
800005c0:	0c070c63          	beqz	a4,80000698 <__udivmoddi4+0x388>
800005c4:	01812403          	lw	s0,24(sp)
800005c8:	00572023          	sw	t0,0(a4)
800005cc:	00f72223          	sw	a5,4(a4)
800005d0:	f75ff06f          	j	80000544 <__udivmoddi4+0x234>
800005d4:	00058513          	mv	a0,a1
800005d8:	00512823          	sw	t0,16(sp)
800005dc:	00e12623          	sw	a4,12(sp)
800005e0:	00d12423          	sw	a3,8(sp)
800005e4:	00b12223          	sw	a1,4(sp)
800005e8:	1a4000ef          	jal	8000078c <__clzsi2>
800005ec:	00050793          	mv	a5,a0
800005f0:	00040513          	mv	a0,s0
800005f4:	00f12023          	sw	a5,0(sp)
800005f8:	194000ef          	jal	8000078c <__clzsi2>
800005fc:	00012783          	lw	a5,0(sp)
80000600:	02000313          	li	t1,32
80000604:	01012283          	lw	t0,16(sp)
80000608:	40a78533          	sub	a0,a5,a0
8000060c:	02150613          	addi	a2,a0,33
80000610:	00412583          	lw	a1,4(sp)
80000614:	00812683          	lw	a3,8(sp)
80000618:	00c12703          	lw	a4,12(sp)
8000061c:	00000793          	li	a5,0
80000620:	e4660ee3          	beq	a2,t1,8000047c <__udivmoddi4+0x16c>
80000624:	01f00393          	li	t2,31
80000628:	0ac3ea63          	bltu	t2,a2,800006dc <__udivmoddi4+0x3cc>
8000062c:	40c30333          	sub	t1,t1,a2
80000630:	00c2d533          	srl	a0,t0,a2
80000634:	006413b3          	sll	t2,s0,t1
80000638:	00c457b3          	srl	a5,s0,a2
8000063c:	006292b3          	sll	t0,t0,t1
80000640:	00a3e433          	or	s0,t2,a0
80000644:	e39ff06f          	j	8000047c <__udivmoddi4+0x16c>
80000648:	00e12023          	sw	a4,0(sp)
8000064c:	02070263          	beqz	a4,80000670 <__udivmoddi4+0x360>
80000650:	00078513          	mv	a0,a5
80000654:	00068593          	mv	a1,a3
80000658:	00f12223          	sw	a5,4(sp)
8000065c:	b69ff0ef          	jal	800001c4 <__umodsi3>
80000660:	00012703          	lw	a4,0(sp)
80000664:	00412783          	lw	a5,4(sp)
80000668:	00072023          	sw	zero,0(a4)
8000066c:	00a72223          	sw	a0,4(a4)
80000670:	00048593          	mv	a1,s1
80000674:	00078513          	mv	a0,a5
80000678:	b05ff0ef          	jal	8000017c <__hidden___udivsi3>
8000067c:	00000593          	li	a1,0
80000680:	01812403          	lw	s0,24(sp)
80000684:	ec9ff06f          	j	8000054c <__udivmoddi4+0x23c>
80000688:	01812403          	lw	s0,24(sp)
8000068c:	00028513          	mv	a0,t0
80000690:	00078593          	mv	a1,a5
80000694:	eb9ff06f          	j	8000054c <__udivmoddi4+0x23c>
80000698:	01812403          	lw	s0,24(sp)
8000069c:	ea9ff06f          	j	80000544 <__udivmoddi4+0x234>
800006a0:	00070863          	beqz	a4,800006b0 <__udivmoddi4+0x3a0>
800006a4:	00f6f6b3          	and	a3,a3,a5
800006a8:	00d72223          	sw	a3,4(a4)
800006ac:	00a72023          	sw	a0,0(a4)
800006b0:	00048513          	mv	a0,s1
800006b4:	00f12023          	sw	a5,0(sp)
800006b8:	164000ef          	jal	8000081c <__ctzsi2>
800006bc:	00012783          	lw	a5,0(sp)
800006c0:	01812403          	lw	s0,24(sp)
800006c4:	00000593          	li	a1,0
800006c8:	00a7d533          	srl	a0,a5,a0
800006cc:	e81ff06f          	j	8000054c <__udivmoddi4+0x23c>
800006d0:	00000793          	li	a5,0
800006d4:	00000693          	li	a3,0
800006d8:	da5ff06f          	j	8000047c <__udivmoddi4+0x16c>
800006dc:	04000313          	li	t1,64
800006e0:	00150513          	addi	a0,a0,1
800006e4:	40c30333          	sub	t1,t1,a2
800006e8:	006296b3          	sll	a3,t0,t1
800006ec:	00641333          	sll	t1,s0,t1
800006f0:	00a2d2b3          	srl	t0,t0,a0
800006f4:	005362b3          	or	t0,t1,t0
800006f8:	00a45433          	srl	s0,s0,a0
800006fc:	d81ff06f          	j	8000047c <__udivmoddi4+0x16c>

80000700 <__moddi3>:
80000700:	fe810113          	addi	sp,sp,-24
80000704:	00812823          	sw	s0,16(sp)
80000708:	41f6d713          	srai	a4,a3,0x1f
8000070c:	41f5d413          	srai	s0,a1,0x1f
80000710:	00e647b3          	xor	a5,a2,a4
80000714:	00854333          	xor	t1,a0,s0
80000718:	00912623          	sw	s1,12(sp)
8000071c:	40e78633          	sub	a2,a5,a4
80000720:	40830533          	sub	a0,t1,s0
80000724:	00e6c6b3          	xor	a3,a3,a4
80000728:	0085c5b3          	xor	a1,a1,s0
8000072c:	00710493          	addi	s1,sp,7
80000730:	ff84f493          	andi	s1,s1,-8
80000734:	00c7b7b3          	sltu	a5,a5,a2
80000738:	40e686b3          	sub	a3,a3,a4
8000073c:	408585b3          	sub	a1,a1,s0
80000740:	00a33333          	sltu	t1,t1,a0
80000744:	40f686b3          	sub	a3,a3,a5
80000748:	00048713          	mv	a4,s1
8000074c:	406585b3          	sub	a1,a1,t1
80000750:	00112a23          	sw	ra,20(sp)
80000754:	bbdff0ef          	jal	80000310 <__udivmoddi4>
80000758:	0004a783          	lw	a5,0(s1)
8000075c:	0044a583          	lw	a1,4(s1)
80000760:	01412083          	lw	ra,20(sp)
80000764:	0087c7b3          	xor	a5,a5,s0
80000768:	0085c5b3          	xor	a1,a1,s0
8000076c:	40878533          	sub	a0,a5,s0
80000770:	408585b3          	sub	a1,a1,s0
80000774:	01012403          	lw	s0,16(sp)
80000778:	00a7b7b3          	sltu	a5,a5,a0
8000077c:	00c12483          	lw	s1,12(sp)
80000780:	40f585b3          	sub	a1,a1,a5
80000784:	01810113          	addi	sp,sp,24
80000788:	00008067          	ret

8000078c <__clzsi2>:
8000078c:	000106b7          	lui	a3,0x10
80000790:	00d536b3          	sltu	a3,a0,a3
80000794:	00469693          	slli	a3,a3,0x4
80000798:	01000793          	li	a5,16
8000079c:	40d787b3          	sub	a5,a5,a3
800007a0:	00010737          	lui	a4,0x10
800007a4:	00f557b3          	srl	a5,a0,a5
800007a8:	f0070713          	addi	a4,a4,-256 # ff00 <_entry_offset+0xff00>
800007ac:	00e7f733          	and	a4,a5,a4
800007b0:	00173713          	seqz	a4,a4
800007b4:	00371713          	slli	a4,a4,0x3
800007b8:	00800613          	li	a2,8
800007bc:	40e60633          	sub	a2,a2,a4
800007c0:	00c7d7b3          	srl	a5,a5,a2
800007c4:	0f07f593          	andi	a1,a5,240
800007c8:	0015b593          	seqz	a1,a1
800007cc:	00259593          	slli	a1,a1,0x2
800007d0:	00400613          	li	a2,4
800007d4:	40b60633          	sub	a2,a2,a1
800007d8:	00c7d7b3          	srl	a5,a5,a2
800007dc:	00c7f613          	andi	a2,a5,12
800007e0:	00163613          	seqz	a2,a2
800007e4:	00200513          	li	a0,2
800007e8:	00161613          	slli	a2,a2,0x1
800007ec:	40c50333          	sub	t1,a0,a2
800007f0:	0067d7b3          	srl	a5,a5,t1
800007f4:	0017d313          	srli	t1,a5,0x1
800007f8:	00d70733          	add	a4,a4,a3
800007fc:	00137693          	andi	a3,t1,1
80000800:	00e58733          	add	a4,a1,a4
80000804:	40f50533          	sub	a0,a0,a5
80000808:	00068463          	beqz	a3,80000810 <__clzsi2+0x84>
8000080c:	00000513          	li	a0,0
80000810:	00e60733          	add	a4,a2,a4
80000814:	00e50533          	add	a0,a0,a4
80000818:	00008067          	ret

8000081c <__ctzsi2>:
8000081c:	01051293          	slli	t0,a0,0x10
80000820:	0102d293          	srli	t0,t0,0x10
80000824:	0012b293          	seqz	t0,t0
80000828:	00429293          	slli	t0,t0,0x4
8000082c:	005557b3          	srl	a5,a0,t0
80000830:	0ff7f613          	zext.b	a2,a5
80000834:	00163613          	seqz	a2,a2
80000838:	00361613          	slli	a2,a2,0x3
8000083c:	00c7d7b3          	srl	a5,a5,a2
80000840:	00f7f693          	andi	a3,a5,15
80000844:	0016b693          	seqz	a3,a3
80000848:	00269693          	slli	a3,a3,0x2
8000084c:	00d7d7b3          	srl	a5,a5,a3
80000850:	0037f713          	andi	a4,a5,3
80000854:	00173713          	seqz	a4,a4
80000858:	00171713          	slli	a4,a4,0x1
8000085c:	00e7d7b3          	srl	a5,a5,a4
80000860:	0037f793          	andi	a5,a5,3
80000864:	fff7c313          	not	t1,a5
80000868:	00560633          	add	a2,a2,t0
8000086c:	0017d793          	srli	a5,a5,0x1
80000870:	00200593          	li	a1,2
80000874:	00137313          	andi	t1,t1,1
80000878:	00c686b3          	add	a3,a3,a2
8000087c:	40600333          	neg	t1,t1
80000880:	40f585b3          	sub	a1,a1,a5
80000884:	00d70533          	add	a0,a4,a3
80000888:	00b375b3          	and	a1,t1,a1
8000088c:	00a58533          	add	a0,a1,a0
80000890:	00008067          	ret
