
/home/freeb1e/pipeline/RV32-pipeline/tests/build/string-riscv32e-npc.elf:     file format elf32-littleriscv


Disassembly of section .text:

80000000 <_start>:
80000000:	00000413          	li	s0,0
80000004:	00009117          	auipc	sp,0x9
80000008:	ffc10113          	addi	sp,sp,-4 # 80009000 <_end>
8000000c:	120000ef          	jal	8000012c <_trm_init>

80000010 <check>:
80000010:	00050463          	beqz	a0,80000018 <check+0x8>
80000014:	00008067          	ret
80000018:	ffc10113          	addi	sp,sp,-4
8000001c:	00100513          	li	a0,1
80000020:	00112023          	sw	ra,0(sp)
80000024:	0fc000ef          	jal	80000120 <halt>

80000028 <main>:
80000028:	ff810113          	addi	sp,sp,-8
8000002c:	00812023          	sw	s0,0(sp)
80000030:	00000417          	auipc	s0,0x0
80000034:	31c40413          	addi	s0,s0,796 # 8000034c <s>
80000038:	00842583          	lw	a1,8(s0)
8000003c:	00042503          	lw	a0,0(s0)
80000040:	00112223          	sw	ra,4(sp)
80000044:	1ac000ef          	jal	800001f0 <strcmp>
80000048:	00153513          	seqz	a0,a0
8000004c:	fc5ff0ef          	jal	80000010 <check>
80000050:	00442583          	lw	a1,4(s0)
80000054:	00042503          	lw	a0,0(s0)
80000058:	198000ef          	jal	800001f0 <strcmp>
8000005c:	01f55513          	srli	a0,a0,0x1f
80000060:	fb1ff0ef          	jal	80000010 <check>
80000064:	00442583          	lw	a1,4(s0)
80000068:	00042503          	lw	a0,0(s0)
8000006c:	00158593          	addi	a1,a1,1
80000070:	00150513          	addi	a0,a0,1
80000074:	17c000ef          	jal	800001f0 <strcmp>
80000078:	01f55513          	srli	a0,a0,0x1f
8000007c:	f95ff0ef          	jal	80000010 <check>
80000080:	00442583          	lw	a1,4(s0)
80000084:	00042503          	lw	a0,0(s0)
80000088:	00258593          	addi	a1,a1,2
8000008c:	00250513          	addi	a0,a0,2
80000090:	160000ef          	jal	800001f0 <strcmp>
80000094:	01f55513          	srli	a0,a0,0x1f
80000098:	f79ff0ef          	jal	80000010 <check>
8000009c:	00442583          	lw	a1,4(s0)
800000a0:	00042503          	lw	a0,0(s0)
800000a4:	00358593          	addi	a1,a1,3
800000a8:	00350513          	addi	a0,a0,3
800000ac:	144000ef          	jal	800001f0 <strcmp>
800000b0:	01f55513          	srli	a0,a0,0x1f
800000b4:	f5dff0ef          	jal	80000010 <check>
800000b8:	00000597          	auipc	a1,0x0
800000bc:	28c58593          	addi	a1,a1,652 # 80000344 <str1>
800000c0:	00000517          	auipc	a0,0x0
800000c4:	2a450513          	addi	a0,a0,676 # 80000364 <str>
800000c8:	084000ef          	jal	8000014c <strcpy>
800000cc:	00c42583          	lw	a1,12(s0)
800000d0:	0b8000ef          	jal	80000188 <strcat>
800000d4:	01042583          	lw	a1,16(s0)
800000d8:	118000ef          	jal	800001f0 <strcmp>
800000dc:	00153513          	seqz	a0,a0
800000e0:	f31ff0ef          	jal	80000010 <check>
800000e4:	00500613          	li	a2,5
800000e8:	02300593          	li	a1,35
800000ec:	00000517          	auipc	a0,0x0
800000f0:	27850513          	addi	a0,a0,632 # 80000364 <str>
800000f4:	144000ef          	jal	80000238 <memset>
800000f8:	01442583          	lw	a1,20(s0)
800000fc:	00500613          	li	a2,5
80000100:	158000ef          	jal	80000258 <memcmp>
80000104:	00153513          	seqz	a0,a0
80000108:	f09ff0ef          	jal	80000010 <check>
8000010c:	00412083          	lw	ra,4(sp)
80000110:	00012403          	lw	s0,0(sp)
80000114:	00000513          	li	a0,0
80000118:	00810113          	addi	sp,sp,8
8000011c:	00008067          	ret

80000120 <halt>:
80000120:	00050513          	mv	a0,a0
80000124:	00100073          	ebreak
80000128:	0000006f          	j	80000128 <halt+0x8>

8000012c <_trm_init>:
8000012c:	ffc10113          	addi	sp,sp,-4
80000130:	00000517          	auipc	a0,0x0
80000134:	1d450513          	addi	a0,a0,468 # 80000304 <mainargs>
80000138:	00112023          	sw	ra,0(sp)
8000013c:	eedff0ef          	jal	80000028 <main>
80000140:	00050513          	mv	a0,a0
80000144:	00100073          	ebreak
80000148:	0000006f          	j	80000148 <_trm_init+0x1c>

8000014c <strcpy>:
8000014c:	0005c703          	lbu	a4,0(a1)
80000150:	02070663          	beqz	a4,8000017c <strcpy+0x30>
80000154:	00000793          	li	a5,0
80000158:	00f506b3          	add	a3,a0,a5
8000015c:	00178793          	addi	a5,a5,1
80000160:	00e68023          	sb	a4,0(a3)
80000164:	00f58733          	add	a4,a1,a5
80000168:	00074703          	lbu	a4,0(a4)
8000016c:	fe0716e3          	bnez	a4,80000158 <strcpy+0xc>
80000170:	00f507b3          	add	a5,a0,a5
80000174:	00078023          	sb	zero,0(a5)
80000178:	00008067          	ret
8000017c:	00050793          	mv	a5,a0
80000180:	00078023          	sb	zero,0(a5)
80000184:	00008067          	ret

80000188 <strcat>:
80000188:	00054783          	lbu	a5,0(a0)
8000018c:	04078c63          	beqz	a5,800001e4 <strcat+0x5c>
80000190:	00150713          	addi	a4,a0,1
80000194:	00000613          	li	a2,0
80000198:	00070793          	mv	a5,a4
8000019c:	00074683          	lbu	a3,0(a4)
800001a0:	00170713          	addi	a4,a4,1
800001a4:	00160613          	addi	a2,a2,1
800001a8:	fe0698e3          	bnez	a3,80000198 <strcat+0x10>
800001ac:	0005c683          	lbu	a3,0(a1)
800001b0:	02068663          	beqz	a3,800001dc <strcat+0x54>
800001b4:	00000793          	li	a5,0
800001b8:	00f60733          	add	a4,a2,a5
800001bc:	00e50733          	add	a4,a0,a4
800001c0:	00178793          	addi	a5,a5,1
800001c4:	00d70023          	sb	a3,0(a4)
800001c8:	00f58733          	add	a4,a1,a5
800001cc:	00074683          	lbu	a3,0(a4)
800001d0:	fe0694e3          	bnez	a3,800001b8 <strcat+0x30>
800001d4:	00c787b3          	add	a5,a5,a2
800001d8:	00f507b3          	add	a5,a0,a5
800001dc:	00078023          	sb	zero,0(a5)
800001e0:	00008067          	ret
800001e4:	00050793          	mv	a5,a0
800001e8:	00000613          	li	a2,0
800001ec:	fc1ff06f          	j	800001ac <strcat+0x24>

800001f0 <strcmp>:
800001f0:	00054683          	lbu	a3,0(a0)
800001f4:	00000793          	li	a5,0
800001f8:	00069a63          	bnez	a3,8000020c <strcmp+0x1c>
800001fc:	0300006f          	j	8000022c <strcmp+0x3c>
80000200:	02d71063          	bne	a4,a3,80000220 <strcmp+0x30>
80000204:	00064683          	lbu	a3,0(a2)
80000208:	02068063          	beqz	a3,80000228 <strcmp+0x38>
8000020c:	00f58733          	add	a4,a1,a5
80000210:	00074703          	lbu	a4,0(a4)
80000214:	00178793          	addi	a5,a5,1
80000218:	00f50633          	add	a2,a0,a5
8000021c:	fe0712e3          	bnez	a4,80000200 <strcmp+0x10>
80000220:	40e68533          	sub	a0,a3,a4
80000224:	00008067          	ret
80000228:	00f585b3          	add	a1,a1,a5
8000022c:	0005c703          	lbu	a4,0(a1)
80000230:	40e68533          	sub	a0,a3,a4
80000234:	00008067          	ret

80000238 <memset>:
80000238:	0ff5f593          	zext.b	a1,a1
8000023c:	00050793          	mv	a5,a0
80000240:	00a60733          	add	a4,a2,a0
80000244:	00060863          	beqz	a2,80000254 <memset+0x1c>
80000248:	00b78023          	sb	a1,0(a5)
8000024c:	00178793          	addi	a5,a5,1
80000250:	fee79ce3          	bne	a5,a4,80000248 <memset+0x10>
80000254:	00008067          	ret

80000258 <memcmp>:
80000258:	02060663          	beqz	a2,80000284 <memcmp+0x2c>
8000025c:	00c50633          	add	a2,a0,a2
80000260:	0080006f          	j	80000268 <memcmp+0x10>
80000264:	02c50063          	beq	a0,a2,80000284 <memcmp+0x2c>
80000268:	00054783          	lbu	a5,0(a0)
8000026c:	0005c703          	lbu	a4,0(a1)
80000270:	00150513          	addi	a0,a0,1
80000274:	00158593          	addi	a1,a1,1
80000278:	fee786e3          	beq	a5,a4,80000264 <memcmp+0xc>
8000027c:	40e78533          	sub	a0,a5,a4
80000280:	00008067          	ret
80000284:	00000513          	li	a0,0
80000288:	00008067          	ret
