
/home/freeb1e/pipeline/RV32-pipeline/tests/build/test_printf-riscv32e-npc.elf:     file format elf32-littleriscv


Disassembly of section .text:

80000000 <_start>:
80000000:	00000413          	li	s0,0
80000004:	0000a117          	auipc	sp,0xa
80000008:	ffc10113          	addi	sp,sp,-4 # 8000a000 <_end>
8000000c:	040000ef          	jal	8000004c <_trm_init>

80000010 <main>:
80000010:	ffc10113          	addi	sp,sp,-4
80000014:	00001517          	auipc	a0,0x1
80000018:	0e850513          	addi	a0,a0,232 # 800010fc <_etext>
8000001c:	00112023          	sw	ra,0(sp)
80000020:	259000ef          	jal	80000a78 <printf>
80000024:	00001517          	auipc	a0,0x1
80000028:	0e850513          	addi	a0,a0,232 # 8000110c <_etext+0x10>
8000002c:	24d000ef          	jal	80000a78 <printf>
80000030:	00012083          	lw	ra,0(sp)
80000034:	00000513          	li	a0,0
80000038:	00410113          	addi	sp,sp,4
8000003c:	00008067          	ret

80000040 <putch>:
80000040:	a00007b7          	lui	a5,0xa0000
80000044:	3ea78c23          	sb	a0,1016(a5) # a00003f8 <_end+0x1fff63f8>
80000048:	00008067          	ret

8000004c <_trm_init>:
8000004c:	ffc10113          	addi	sp,sp,-4
80000050:	00001517          	auipc	a0,0x1
80000054:	0f450513          	addi	a0,a0,244 # 80001144 <mainargs>
80000058:	00112023          	sw	ra,0(sp)
8000005c:	fb5ff0ef          	jal	80000010 <main>
80000060:	00050513          	mv	a0,a0
80000064:	00100073          	ebreak
80000068:	0000006f          	j	80000068 <_trm_init+0x1c>

8000006c <vsnprintf>:
8000006c:	f8c10113          	addi	sp,sp,-116
80000070:	06812623          	sw	s0,108(sp)
80000074:	06112823          	sw	ra,112(sp)
80000078:	00064783          	lbu	a5,0(a2)
8000007c:	00d12623          	sw	a3,12(sp)
80000080:	00058413          	mv	s0,a1
80000084:	040784e3          	beqz	a5,800008cc <vsnprintf+0x860>
80000088:	00000713          	li	a4,0
8000008c:	06912423          	sw	s1,104(sp)
80000090:	00058293          	mv	t0,a1
80000094:	00050693          	mv	a3,a0
80000098:	00b12c23          	sw	a1,24(sp)
8000009c:	00060493          	mv	s1,a2
800000a0:	00070393          	mv	t2,a4
800000a4:	0240006f          	j	800000c8 <vsnprintf+0x5c>
800000a8:	00028863          	beqz	t0,800000b8 <vsnprintf+0x4c>
800000ac:	00f68023          	sb	a5,0(a3)
800000b0:	fff28293          	addi	t0,t0,-1
800000b4:	00168693          	addi	a3,a3,1
800000b8:	00138393          	addi	t2,t2,1
800000bc:	00040493          	mv	s1,s0
800000c0:	0004c783          	lbu	a5,0(s1)
800000c4:	2a078e63          	beqz	a5,80000380 <vsnprintf+0x314>
800000c8:	02500713          	li	a4,37
800000cc:	00148413          	addi	s0,s1,1
800000d0:	fce79ce3          	bne	a5,a4,800000a8 <vsnprintf+0x3c>
800000d4:	01800613          	li	a2,24
800000d8:	00000593          	li	a1,0
800000dc:	03010513          	addi	a0,sp,48
800000e0:	00d12423          	sw	a3,8(sp)
800000e4:	00712223          	sw	t2,4(sp)
800000e8:	00512023          	sw	t0,0(sp)
800000ec:	209000ef          	jal	80000af4 <memset>
800000f0:	0014c603          	lbu	a2,1(s1)
800000f4:	fff00793          	li	a5,-1
800000f8:	02f12c23          	sw	a5,56(sp)
800000fc:	02f12e23          	sw	a5,60(sp)
80000100:	00012283          	lw	t0,0(sp)
80000104:	00412383          	lw	t2,4(sp)
80000108:	00812683          	lw	a3,8(sp)
8000010c:	01000593          	li	a1,16
80000110:	00001717          	auipc	a4,0x1
80000114:	07470713          	addi	a4,a4,116 # 80001184 <mainargs+0x40>
80000118:	3a060063          	beqz	a2,800004b8 <vsnprintf+0x44c>
8000011c:	fe060793          	addi	a5,a2,-32
80000120:	0ff7f793          	zext.b	a5,a5
80000124:	00f5ec63          	bltu	a1,a5,8000013c <vsnprintf+0xd0>
80000128:	00279793          	slli	a5,a5,0x2
8000012c:	00e787b3          	add	a5,a5,a4
80000130:	0007a783          	lw	a5,0(a5)
80000134:	00e787b3          	add	a5,a5,a4
80000138:	00078067          	jr	a5
8000013c:	02a00793          	li	a5,42
80000140:	22f60063          	beq	a2,a5,80000360 <vsnprintf+0x2f4>
80000144:	fd060793          	addi	a5,a2,-48
80000148:	0ff7f793          	zext.b	a5,a5
8000014c:	00900593          	li	a1,9
80000150:	00044603          	lbu	a2,0(s0)
80000154:	04f5e263          	bltu	a1,a5,80000198 <vsnprintf+0x12c>
80000158:	fd060713          	addi	a4,a2,-48
8000015c:	02012c23          	sw	zero,56(sp)
80000160:	0ff77793          	zext.b	a5,a4
80000164:	02f5ea63          	bltu	a1,a5,80000198 <vsnprintf+0x12c>
80000168:	00000793          	li	a5,0
8000016c:	00078513          	mv	a0,a5
80000170:	00251793          	slli	a5,a0,0x2
80000174:	00144603          	lbu	a2,1(s0)
80000178:	00a787b3          	add	a5,a5,a0
8000017c:	00179793          	slli	a5,a5,0x1
80000180:	00e78533          	add	a0,a5,a4
80000184:	fd060713          	addi	a4,a2,-48
80000188:	0ff77793          	zext.b	a5,a4
8000018c:	00140413          	addi	s0,s0,1
80000190:	fef5f0e3          	bgeu	a1,a5,80000170 <vsnprintf+0x104>
80000194:	02a12c23          	sw	a0,56(sp)
80000198:	00040493          	mv	s1,s0
8000019c:	02e00793          	li	a5,46
800001a0:	14f60663          	beq	a2,a5,800002ec <vsnprintf+0x280>
800001a4:	06800793          	li	a5,104
800001a8:	1af60063          	beq	a2,a5,80000348 <vsnprintf+0x2dc>
800001ac:	06c00793          	li	a5,108
800001b0:	20f60c63          	beq	a2,a5,800003c8 <vsnprintf+0x35c>
800001b4:	04c00793          	li	a5,76
800001b8:	00f61a63          	bne	a2,a5,800001cc <vsnprintf+0x160>
800001bc:	00500793          	li	a5,5
800001c0:	0014c603          	lbu	a2,1(s1)
800001c4:	04f12023          	sw	a5,64(sp)
800001c8:	00148493          	addi	s1,s1,1
800001cc:	04c10223          	sb	a2,68(sp)
800001d0:	07800793          	li	a5,120
800001d4:	00148493          	addi	s1,s1,1
800001d8:	eec7e4e3          	bltu	a5,a2,800000c0 <vsnprintf+0x54>
800001dc:	06200793          	li	a5,98
800001e0:	1cc7f463          	bgeu	a5,a2,800003a8 <vsnprintf+0x33c>
800001e4:	f9d60793          	addi	a5,a2,-99
800001e8:	00100593          	li	a1,1
800001ec:	00241737          	lui	a4,0x241
800001f0:	00f597b3          	sll	a5,a1,a5
800001f4:	04270713          	addi	a4,a4,66 # 241042 <_entry_offset+0x241042>
800001f8:	00e7f733          	and	a4,a5,a4
800001fc:	20071663          	bnez	a4,80000408 <vsnprintf+0x39c>
80000200:	00b7f7b3          	and	a5,a5,a1
80000204:	1c079e63          	bnez	a5,800003e0 <vsnprintf+0x374>
80000208:	07300793          	li	a5,115
8000020c:	eaf61ae3          	bne	a2,a5,800000c0 <vsnprintf+0x54>
80000210:	00c12783          	lw	a5,12(sp)
80000214:	0007a603          	lw	a2,0(a5)
80000218:	00478413          	addi	s0,a5,4
8000021c:	36060c63          	beqz	a2,80000594 <vsnprintf+0x528>
80000220:	03c12583          	lw	a1,60(sp)
80000224:	2605c463          	bltz	a1,8000048c <vsnprintf+0x420>
80000228:	72058c63          	beqz	a1,80000960 <vsnprintf+0x8f4>
8000022c:	00000793          	li	a5,0
80000230:	0100006f          	j	80000240 <vsnprintf+0x1d4>
80000234:	00178713          	addi	a4,a5,1
80000238:	00b75e63          	bge	a4,a1,80000254 <vsnprintf+0x1e8>
8000023c:	00070793          	mv	a5,a4
80000240:	00f60733          	add	a4,a2,a5
80000244:	00074703          	lbu	a4,0(a4)
80000248:	fe0716e3          	bnez	a4,80000234 <vsnprintf+0x1c8>
8000024c:	00078713          	mv	a4,a5
80000250:	fff78793          	addi	a5,a5,-1
80000254:	03812503          	lw	a0,56(sp)
80000258:	03014583          	lbu	a1,48(sp)
8000025c:	2aa75c63          	bge	a4,a0,80000514 <vsnprintf+0x4a8>
80000260:	40e50533          	sub	a0,a0,a4
80000264:	34059263          	bnez	a1,800005a8 <vsnprintf+0x53c>
80000268:	fff50593          	addi	a1,a0,-1
8000026c:	fff00313          	li	t1,-1
80000270:	00f12023          	sw	a5,0(sp)
80000274:	00028a63          	beqz	t0,80000288 <vsnprintf+0x21c>
80000278:	02000793          	li	a5,32
8000027c:	00f68023          	sb	a5,0(a3)
80000280:	fff28293          	addi	t0,t0,-1
80000284:	00168693          	addi	a3,a3,1
80000288:	fff58593          	addi	a1,a1,-1
8000028c:	fe6594e3          	bne	a1,t1,80000274 <vsnprintf+0x208>
80000290:	00012783          	lw	a5,0(sp)
80000294:	00a383b3          	add	t2,t2,a0
80000298:	7a070263          	beqz	a4,80000a3c <vsnprintf+0x9d0>
8000029c:	00000593          	li	a1,0
800002a0:	27c0006f          	j	8000051c <vsnprintf+0x4b0>
800002a4:	00100793          	li	a5,1
800002a8:	02f10a23          	sb	a5,52(sp)
800002ac:	00144603          	lbu	a2,1(s0)
800002b0:	00140413          	addi	s0,s0,1
800002b4:	e60614e3          	bnez	a2,8000011c <vsnprintf+0xb0>
800002b8:	ee1ff06f          	j	80000198 <vsnprintf+0x12c>
800002bc:	00100793          	li	a5,1
800002c0:	02f10823          	sb	a5,48(sp)
800002c4:	fe9ff06f          	j	800002ac <vsnprintf+0x240>
800002c8:	00100793          	li	a5,1
800002cc:	02f108a3          	sb	a5,49(sp)
800002d0:	fddff06f          	j	800002ac <vsnprintf+0x240>
800002d4:	00100793          	li	a5,1
800002d8:	02f109a3          	sb	a5,51(sp)
800002dc:	fd1ff06f          	j	800002ac <vsnprintf+0x240>
800002e0:	00100793          	li	a5,1
800002e4:	02f10923          	sb	a5,50(sp)
800002e8:	fc5ff06f          	j	800002ac <vsnprintf+0x240>
800002ec:	0014c603          	lbu	a2,1(s1)
800002f0:	02a00793          	li	a5,42
800002f4:	1af60263          	beq	a2,a5,80000498 <vsnprintf+0x42c>
800002f8:	fd060713          	addi	a4,a2,-48
800002fc:	02012e23          	sw	zero,60(sp)
80000300:	0ff77793          	zext.b	a5,a4
80000304:	00900593          	li	a1,9
80000308:	00148493          	addi	s1,s1,1
8000030c:	e8f5ece3          	bltu	a1,a5,800001a4 <vsnprintf+0x138>
80000310:	00000793          	li	a5,0
80000314:	00078513          	mv	a0,a5
80000318:	00251793          	slli	a5,a0,0x2
8000031c:	0014c603          	lbu	a2,1(s1)
80000320:	00a787b3          	add	a5,a5,a0
80000324:	00179793          	slli	a5,a5,0x1
80000328:	00e78533          	add	a0,a5,a4
8000032c:	fd060713          	addi	a4,a2,-48
80000330:	0ff77793          	zext.b	a5,a4
80000334:	00148493          	addi	s1,s1,1
80000338:	fef5f0e3          	bgeu	a1,a5,80000318 <vsnprintf+0x2ac>
8000033c:	02a12e23          	sw	a0,60(sp)
80000340:	06800793          	li	a5,104
80000344:	e6f614e3          	bne	a2,a5,800001ac <vsnprintf+0x140>
80000348:	0014c603          	lbu	a2,1(s1)
8000034c:	12f60663          	beq	a2,a5,80000478 <vsnprintf+0x40c>
80000350:	00200793          	li	a5,2
80000354:	00148493          	addi	s1,s1,1
80000358:	04f12023          	sw	a5,64(sp)
8000035c:	e71ff06f          	j	800001cc <vsnprintf+0x160>
80000360:	00c12703          	lw	a4,12(sp)
80000364:	00144603          	lbu	a2,1(s0)
80000368:	00140493          	addi	s1,s0,1
8000036c:	00072783          	lw	a5,0(a4)
80000370:	00470713          	addi	a4,a4,4
80000374:	00e12623          	sw	a4,12(sp)
80000378:	02f12c23          	sw	a5,56(sp)
8000037c:	e21ff06f          	j	8000019c <vsnprintf+0x130>
80000380:	01812403          	lw	s0,24(sp)
80000384:	06812483          	lw	s1,104(sp)
80000388:	00038513          	mv	a0,t2
8000038c:	00068713          	mv	a4,a3
80000390:	00040463          	beqz	s0,80000398 <vsnprintf+0x32c>
80000394:	00070023          	sb	zero,0(a4)
80000398:	07012083          	lw	ra,112(sp)
8000039c:	06c12403          	lw	s0,108(sp)
800003a0:	07410113          	addi	sp,sp,116
800003a4:	00008067          	ret
800003a8:	02500793          	li	a5,37
800003ac:	10f61a63          	bne	a2,a5,800004c0 <vsnprintf+0x454>
800003b0:	00028863          	beqz	t0,800003c0 <vsnprintf+0x354>
800003b4:	00c68023          	sb	a2,0(a3)
800003b8:	fff28293          	addi	t0,t0,-1
800003bc:	00168693          	addi	a3,a3,1
800003c0:	00138393          	addi	t2,t2,1
800003c4:	cfdff06f          	j	800000c0 <vsnprintf+0x54>
800003c8:	0014c603          	lbu	a2,1(s1)
800003cc:	08f60c63          	beq	a2,a5,80000464 <vsnprintf+0x3f8>
800003d0:	00300793          	li	a5,3
800003d4:	00148493          	addi	s1,s1,1
800003d8:	04f12023          	sw	a5,64(sp)
800003dc:	df1ff06f          	j	800001cc <vsnprintf+0x160>
800003e0:	00c12703          	lw	a4,12(sp)
800003e4:	00470793          	addi	a5,a4,4
800003e8:	00028a63          	beqz	t0,800003fc <vsnprintf+0x390>
800003ec:	00072703          	lw	a4,0(a4)
800003f0:	fff28293          	addi	t0,t0,-1
800003f4:	00168693          	addi	a3,a3,1
800003f8:	fee68fa3          	sb	a4,-1(a3)
800003fc:	00138393          	addi	t2,t2,1
80000400:	00f12623          	sw	a5,12(sp)
80000404:	cbdff06f          	j	800000c0 <vsnprintf+0x54>
80000408:	f9c60793          	addi	a5,a2,-100
8000040c:	0ff7f793          	zext.b	a5,a5
80000410:	01400713          	li	a4,20
80000414:	caf766e3          	bltu	a4,a5,800000c0 <vsnprintf+0x54>
80000418:	00f597b3          	sll	a5,a1,a5
8000041c:	00b7d713          	srli	a4,a5,0xb
80000420:	24177713          	andi	a4,a4,577
80000424:	44071463          	bnez	a4,8000086c <vsnprintf+0x800>
80000428:	0217f793          	andi	a5,a5,33
8000042c:	c8078ae3          	beqz	a5,800000c0 <vsnprintf+0x54>
80000430:	04012783          	lw	a5,64(sp)
80000434:	00300713          	li	a4,3
80000438:	18e78263          	beq	a5,a4,800005bc <vsnprintf+0x550>
8000043c:	16f76c63          	bltu	a4,a5,800005b4 <vsnprintf+0x548>
80000440:	5ab78463          	beq	a5,a1,800009e8 <vsnprintf+0x97c>
80000444:	00200713          	li	a4,2
80000448:	16e79a63          	bne	a5,a4,800005bc <vsnprintf+0x550>
8000044c:	00c12783          	lw	a5,12(sp)
80000450:	00079703          	lh	a4,0(a5)
80000454:	00478793          	addi	a5,a5,4
80000458:	00f12623          	sw	a5,12(sp)
8000045c:	41f75793          	srai	a5,a4,0x1f
80000460:	1700006f          	j	800005d0 <vsnprintf+0x564>
80000464:	00400793          	li	a5,4
80000468:	0024c603          	lbu	a2,2(s1)
8000046c:	04f12023          	sw	a5,64(sp)
80000470:	00248493          	addi	s1,s1,2
80000474:	d59ff06f          	j	800001cc <vsnprintf+0x160>
80000478:	00100793          	li	a5,1
8000047c:	0024c603          	lbu	a2,2(s1)
80000480:	04f12023          	sw	a5,64(sp)
80000484:	00248493          	addi	s1,s1,2
80000488:	d45ff06f          	j	800001cc <vsnprintf+0x160>
8000048c:	800005b7          	lui	a1,0x80000
80000490:	fff58593          	addi	a1,a1,-1 # 7fffffff <_entry_offset+0x7fffffff>
80000494:	d99ff06f          	j	8000022c <vsnprintf+0x1c0>
80000498:	00c12703          	lw	a4,12(sp)
8000049c:	0024c603          	lbu	a2,2(s1)
800004a0:	00248493          	addi	s1,s1,2
800004a4:	00072783          	lw	a5,0(a4)
800004a8:	00470713          	addi	a4,a4,4
800004ac:	00e12623          	sw	a4,12(sp)
800004b0:	02f12e23          	sw	a5,60(sp)
800004b4:	cf1ff06f          	j	800001a4 <vsnprintf+0x138>
800004b8:	00248493          	addi	s1,s1,2
800004bc:	04010223          	sb	zero,68(sp)
800004c0:	05800793          	li	a5,88
800004c4:	bef61ee3          	bne	a2,a5,800000c0 <vsnprintf+0x54>
800004c8:	04012783          	lw	a5,64(sp)
800004cc:	00300713          	li	a4,3
800004d0:	56e78a63          	beq	a5,a4,80000a44 <vsnprintf+0x9d8>
800004d4:	52f76663          	bltu	a4,a5,80000a00 <vsnprintf+0x994>
800004d8:	00100713          	li	a4,1
800004dc:	3ae79263          	bne	a5,a4,80000880 <vsnprintf+0x814>
800004e0:	00c12603          	lw	a2,12(sp)
800004e4:	00000793          	li	a5,0
800004e8:	00064703          	lbu	a4,0(a2)
800004ec:	00460613          	addi	a2,a2,4
800004f0:	00c12623          	sw	a2,12(sp)
800004f4:	00a00613          	li	a2,10
800004f8:	00c12023          	sw	a2,0(sp)
800004fc:	00001617          	auipc	a2,0x1
80000500:	c2c60613          	addi	a2,a2,-980 # 80001128 <_etext+0x2c>
80000504:	00012a23          	sw	zero,20(sp)
80000508:	00012e23          	sw	zero,28(sp)
8000050c:	00c12823          	sw	a2,16(sp)
80000510:	0f80006f          	j	80000608 <vsnprintf+0x59c>
80000514:	00000513          	li	a0,0
80000518:	52070263          	beqz	a4,80000a3c <vsnprintf+0x9d0>
8000051c:	00178793          	addi	a5,a5,1
80000520:	007787b3          	add	a5,a5,t2
80000524:	00038713          	mv	a4,t2
80000528:	01c0006f          	j	80000544 <vsnprintf+0x4d8>
8000052c:	00028863          	beqz	t0,8000053c <vsnprintf+0x4d0>
80000530:	00668023          	sb	t1,0(a3)
80000534:	fff28293          	addi	t0,t0,-1
80000538:	00168693          	addi	a3,a3,1
8000053c:	00170713          	addi	a4,a4,1
80000540:	00f70a63          	beq	a4,a5,80000554 <vsnprintf+0x4e8>
80000544:	40770333          	sub	t1,a4,t2
80000548:	00660333          	add	t1,a2,t1
8000054c:	00034303          	lbu	t1,0(t1)
80000550:	fc031ee3          	bnez	t1,8000052c <vsnprintf+0x4c0>
80000554:	00812623          	sw	s0,12(sp)
80000558:	00070393          	mv	t2,a4
8000055c:	b60582e3          	beqz	a1,800000c0 <vsnprintf+0x54>
80000560:	fff50793          	addi	a5,a0,-1
80000564:	b4050ee3          	beqz	a0,800000c0 <vsnprintf+0x54>
80000568:	02000613          	li	a2,32
8000056c:	fff00713          	li	a4,-1
80000570:	00028863          	beqz	t0,80000580 <vsnprintf+0x514>
80000574:	00c68023          	sb	a2,0(a3)
80000578:	fff28293          	addi	t0,t0,-1
8000057c:	00168693          	addi	a3,a3,1
80000580:	fff78793          	addi	a5,a5,-1
80000584:	fee796e3          	bne	a5,a4,80000570 <vsnprintf+0x504>
80000588:	00a383b3          	add	t2,t2,a0
8000058c:	00812623          	sw	s0,12(sp)
80000590:	b31ff06f          	j	800000c0 <vsnprintf+0x54>
80000594:	03c12583          	lw	a1,60(sp)
80000598:	00001617          	auipc	a2,0x1
8000059c:	ba460613          	addi	a2,a2,-1116 # 8000113c <_etext+0x40>
800005a0:	c805d4e3          	bgez	a1,80000228 <vsnprintf+0x1bc>
800005a4:	ee9ff06f          	j	8000048c <vsnprintf+0x420>
800005a8:	f6071ae3          	bnez	a4,8000051c <vsnprintf+0x4b0>
800005ac:	fff50793          	addi	a5,a0,-1
800005b0:	fb9ff06f          	j	80000568 <vsnprintf+0x4fc>
800005b4:	00400713          	li	a4,4
800005b8:	38e78863          	beq	a5,a4,80000948 <vsnprintf+0x8dc>
800005bc:	00c12783          	lw	a5,12(sp)
800005c0:	0007a703          	lw	a4,0(a5)
800005c4:	00478793          	addi	a5,a5,4
800005c8:	00f12623          	sw	a5,12(sp)
800005cc:	41f75793          	srai	a5,a4,0x1f
800005d0:	00012e23          	sw	zero,28(sp)
800005d4:	0007de63          	bgez	a5,800005f0 <vsnprintf+0x584>
800005d8:	00e03633          	snez	a2,a4
800005dc:	40f007b3          	neg	a5,a5
800005e0:	40c787b3          	sub	a5,a5,a2
800005e4:	00100613          	li	a2,1
800005e8:	40e00733          	neg	a4,a4
800005ec:	00c12e23          	sw	a2,28(sp)
800005f0:	00a00613          	li	a2,10
800005f4:	00c12023          	sw	a2,0(sp)
800005f8:	00001617          	auipc	a2,0x1
800005fc:	b1c60613          	addi	a2,a2,-1252 # 80001114 <_etext+0x18>
80000600:	00012a23          	sw	zero,20(sp)
80000604:	00c12823          	sw	a2,16(sp)
80000608:	00000413          	li	s0,0
8000060c:	02912623          	sw	s1,44(sp)
80000610:	02512023          	sw	t0,32(sp)
80000614:	02712223          	sw	t2,36(sp)
80000618:	02d12423          	sw	a3,40(sp)
8000061c:	00040493          	mv	s1,s0
80000620:	00012603          	lw	a2,0(sp)
80000624:	00000693          	li	a3,0
80000628:	00070513          	mv	a0,a4
8000062c:	00078593          	mv	a1,a5
80000630:	00e12423          	sw	a4,8(sp)
80000634:	00f12223          	sw	a5,4(sp)
80000638:	0d5000ef          	jal	80000f0c <__umoddi3>
8000063c:	01012783          	lw	a5,16(sp)
80000640:	00812703          	lw	a4,8(sp)
80000644:	00012603          	lw	a2,0(sp)
80000648:	00a78533          	add	a0,a5,a0
8000064c:	00054683          	lbu	a3,0(a0)
80000650:	00412783          	lw	a5,4(sp)
80000654:	00148493          	addi	s1,s1,1
80000658:	00910433          	add	s0,sp,s1
8000065c:	04d403a3          	sb	a3,71(s0)
80000660:	00070513          	mv	a0,a4
80000664:	00078593          	mv	a1,a5
80000668:	00000693          	li	a3,0
8000066c:	00e12223          	sw	a4,4(sp)
80000670:	00078413          	mv	s0,a5
80000674:	091000ef          	jal	80000f04 <__udivdi3>
80000678:	01412683          	lw	a3,20(sp)
8000067c:	00050713          	mv	a4,a0
80000680:	00058793          	mv	a5,a1
80000684:	f8869ee3          	bne	a3,s0,80000620 <vsnprintf+0x5b4>
80000688:	00012683          	lw	a3,0(sp)
8000068c:	00412603          	lw	a2,4(sp)
80000690:	f8d678e3          	bgeu	a2,a3,80000620 <vsnprintf+0x5b4>
80000694:	03c12783          	lw	a5,60(sp)
80000698:	00048413          	mv	s0,s1
8000069c:	02012283          	lw	t0,32(sp)
800006a0:	02412383          	lw	t2,36(sp)
800006a4:	02812683          	lw	a3,40(sp)
800006a8:	02c12483          	lw	s1,44(sp)
800006ac:	1af45a63          	bge	s0,a5,80000860 <vsnprintf+0x7f4>
800006b0:	408785b3          	sub	a1,a5,s0
800006b4:	fff58313          	addi	t1,a1,-1
800006b8:	01c12783          	lw	a5,28(sp)
800006bc:	18079a63          	bnez	a5,80000850 <vsnprintf+0x7e4>
800006c0:	03114783          	lbu	a5,49(sp)
800006c4:	20079a63          	bnez	a5,800008d8 <vsnprintf+0x86c>
800006c8:	03214783          	lbu	a5,50(sp)
800006cc:	00579713          	slli	a4,a5,0x5
800006d0:	0ff77713          	zext.b	a4,a4
800006d4:	00e12223          	sw	a4,4(sp)
800006d8:	03812703          	lw	a4,56(sp)
800006dc:	00138613          	addi	a2,t2,1
800006e0:	00f587b3          	add	a5,a1,a5
800006e4:	00c12423          	sw	a2,8(sp)
800006e8:	008787b3          	add	a5,a5,s0
800006ec:	03014503          	lbu	a0,48(sp)
800006f0:	03414603          	lbu	a2,52(sp)
800006f4:	0ee7cc63          	blt	a5,a4,800007ec <vsnprintf+0x780>
800006f8:	0c060463          	beqz	a2,800007c0 <vsnprintf+0x754>
800006fc:	00012023          	sw	zero,0(sp)
80000700:	0c050463          	beqz	a0,800007c8 <vsnprintf+0x75c>
80000704:	00412783          	lw	a5,4(sp)
80000708:	00100513          	li	a0,1
8000070c:	00078e63          	beqz	a5,80000728 <vsnprintf+0x6bc>
80000710:	00812703          	lw	a4,8(sp)
80000714:	00070393          	mv	t2,a4
80000718:	00028863          	beqz	t0,80000728 <vsnprintf+0x6bc>
8000071c:	00f68023          	sb	a5,0(a3)
80000720:	fff28293          	addi	t0,t0,-1
80000724:	00a686b3          	add	a3,a3,a0
80000728:	00030793          	mv	a5,t1
8000072c:	03000613          	li	a2,48
80000730:	fff00713          	li	a4,-1
80000734:	02058263          	beqz	a1,80000758 <vsnprintf+0x6ec>
80000738:	00028863          	beqz	t0,80000748 <vsnprintf+0x6dc>
8000073c:	00c68023          	sb	a2,0(a3)
80000740:	fff28293          	addi	t0,t0,-1
80000744:	00168693          	addi	a3,a3,1
80000748:	fff78793          	addi	a5,a5,-1
8000074c:	fee796e3          	bne	a5,a4,80000738 <vsnprintf+0x6cc>
80000750:	00130793          	addi	a5,t1,1
80000754:	00f383b3          	add	t2,t2,a5
80000758:	04810793          	addi	a5,sp,72
8000075c:	008787b3          	add	a5,a5,s0
80000760:	00028a63          	beqz	t0,80000774 <vsnprintf+0x708>
80000764:	fff7c703          	lbu	a4,-1(a5)
80000768:	fff28293          	addi	t0,t0,-1
8000076c:	00168693          	addi	a3,a3,1
80000770:	fee68fa3          	sb	a4,-1(a3)
80000774:	fff78793          	addi	a5,a5,-1
80000778:	04810713          	addi	a4,sp,72
8000077c:	fef712e3          	bne	a4,a5,80000760 <vsnprintf+0x6f4>
80000780:	008383b3          	add	t2,t2,s0
80000784:	92050ee3          	beqz	a0,800000c0 <vsnprintf+0x54>
80000788:	00012703          	lw	a4,0(sp)
8000078c:	fff70793          	addi	a5,a4,-1
80000790:	920708e3          	beqz	a4,800000c0 <vsnprintf+0x54>
80000794:	02000613          	li	a2,32
80000798:	fff00713          	li	a4,-1
8000079c:	00028863          	beqz	t0,800007ac <vsnprintf+0x740>
800007a0:	00c68023          	sb	a2,0(a3)
800007a4:	fff28293          	addi	t0,t0,-1
800007a8:	00168693          	addi	a3,a3,1
800007ac:	fff78793          	addi	a5,a5,-1
800007b0:	fee796e3          	bne	a5,a4,8000079c <vsnprintf+0x730>
800007b4:	00012783          	lw	a5,0(sp)
800007b8:	00f383b3          	add	t2,t2,a5
800007bc:	905ff06f          	j	800000c0 <vsnprintf+0x54>
800007c0:	18051063          	bnez	a0,80000940 <vsnprintf+0x8d4>
800007c4:	00012023          	sw	zero,0(sp)
800007c8:	00412783          	lw	a5,4(sp)
800007cc:	f4078ee3          	beqz	a5,80000728 <vsnprintf+0x6bc>
800007d0:	00028a63          	beqz	t0,800007e4 <vsnprintf+0x778>
800007d4:	00412783          	lw	a5,4(sp)
800007d8:	fff28293          	addi	t0,t0,-1
800007dc:	00168693          	addi	a3,a3,1
800007e0:	fef68fa3          	sb	a5,-1(a3)
800007e4:	00812383          	lw	t2,8(sp)
800007e8:	f41ff06f          	j	80000728 <vsnprintf+0x6bc>
800007ec:	40f707b3          	sub	a5,a4,a5
800007f0:	00f12023          	sw	a5,0(sp)
800007f4:	0e060a63          	beqz	a2,800008e8 <vsnprintf+0x87c>
800007f8:	f00516e3          	bnez	a0,80000704 <vsnprintf+0x698>
800007fc:	00412783          	lw	a5,4(sp)
80000800:	00078e63          	beqz	a5,8000081c <vsnprintf+0x7b0>
80000804:	00028a63          	beqz	t0,80000818 <vsnprintf+0x7ac>
80000808:	00412783          	lw	a5,4(sp)
8000080c:	fff28293          	addi	t0,t0,-1
80000810:	00168693          	addi	a3,a3,1
80000814:	fef68fa3          	sb	a5,-1(a3)
80000818:	00812383          	lw	t2,8(sp)
8000081c:	00012783          	lw	a5,0(sp)
80000820:	03000613          	li	a2,48
80000824:	fff00713          	li	a4,-1
80000828:	fff78793          	addi	a5,a5,-1
8000082c:	00028863          	beqz	t0,8000083c <vsnprintf+0x7d0>
80000830:	00c68023          	sb	a2,0(a3)
80000834:	fff28293          	addi	t0,t0,-1
80000838:	00168693          	addi	a3,a3,1
8000083c:	fff78793          	addi	a5,a5,-1
80000840:	fee796e3          	bne	a5,a4,8000082c <vsnprintf+0x7c0>
80000844:	00012783          	lw	a5,0(sp)
80000848:	00f383b3          	add	t2,t2,a5
8000084c:	eddff06f          	j	80000728 <vsnprintf+0x6bc>
80000850:	02d00713          	li	a4,45
80000854:	00100793          	li	a5,1
80000858:	00e12223          	sw	a4,4(sp)
8000085c:	e7dff06f          	j	800006d8 <vsnprintf+0x66c>
80000860:	fff00313          	li	t1,-1
80000864:	00000593          	li	a1,0
80000868:	e51ff06f          	j	800006b8 <vsnprintf+0x64c>
8000086c:	04012783          	lw	a5,64(sp)
80000870:	00300713          	li	a4,3
80000874:	14e78e63          	beq	a5,a4,800009d0 <vsnprintf+0x964>
80000878:	12f76c63          	bltu	a4,a5,800009b0 <vsnprintf+0x944>
8000087c:	10b78263          	beq	a5,a1,80000980 <vsnprintf+0x914>
80000880:	00200713          	li	a4,2
80000884:	10e79a63          	bne	a5,a4,80000998 <vsnprintf+0x92c>
80000888:	00c12583          	lw	a1,12(sp)
8000088c:	00000793          	li	a5,0
80000890:	0005d703          	lhu	a4,0(a1)
80000894:	00458593          	addi	a1,a1,4
80000898:	00b12623          	sw	a1,12(sp)
8000089c:	05800593          	li	a1,88
800008a0:	c4b60ae3          	beq	a2,a1,800004f4 <vsnprintf+0x488>
800008a4:	06f00593          	li	a1,111
800008a8:	1cb61463          	bne	a2,a1,80000a70 <vsnprintf+0xa04>
800008ac:	00800613          	li	a2,8
800008b0:	00c12023          	sw	a2,0(sp)
800008b4:	00001617          	auipc	a2,0x1
800008b8:	86060613          	addi	a2,a2,-1952 # 80001114 <_etext+0x18>
800008bc:	00012a23          	sw	zero,20(sp)
800008c0:	00012e23          	sw	zero,28(sp)
800008c4:	00c12823          	sw	a2,16(sp)
800008c8:	d41ff06f          	j	80000608 <vsnprintf+0x59c>
800008cc:	00050713          	mv	a4,a0
800008d0:	00000513          	li	a0,0
800008d4:	abdff06f          	j	80000390 <vsnprintf+0x324>
800008d8:	02b00713          	li	a4,43
800008dc:	00100793          	li	a5,1
800008e0:	00e12223          	sw	a4,4(sp)
800008e4:	df5ff06f          	j	800006d8 <vsnprintf+0x66c>
800008e8:	e0051ee3          	bnez	a0,80000704 <vsnprintf+0x698>
800008ec:	00012783          	lw	a5,0(sp)
800008f0:	02000613          	li	a2,32
800008f4:	fff00713          	li	a4,-1
800008f8:	fff78793          	addi	a5,a5,-1
800008fc:	00028863          	beqz	t0,8000090c <vsnprintf+0x8a0>
80000900:	00c68023          	sb	a2,0(a3)
80000904:	fff28293          	addi	t0,t0,-1
80000908:	00168693          	addi	a3,a3,1
8000090c:	fff78793          	addi	a5,a5,-1
80000910:	fee796e3          	bne	a5,a4,800008fc <vsnprintf+0x890>
80000914:	00012783          	lw	a5,0(sp)
80000918:	00412703          	lw	a4,4(sp)
8000091c:	00f383b3          	add	t2,t2,a5
80000920:	e00704e3          	beqz	a4,80000728 <vsnprintf+0x6bc>
80000924:	00812603          	lw	a2,8(sp)
80000928:	00f603b3          	add	t2,a2,a5
8000092c:	de028ee3          	beqz	t0,80000728 <vsnprintf+0x6bc>
80000930:	00e68023          	sb	a4,0(a3)
80000934:	fff28293          	addi	t0,t0,-1
80000938:	00168693          	addi	a3,a3,1
8000093c:	dedff06f          	j	80000728 <vsnprintf+0x6bc>
80000940:	00012023          	sw	zero,0(sp)
80000944:	dc1ff06f          	j	80000704 <vsnprintf+0x698>
80000948:	00c12603          	lw	a2,12(sp)
8000094c:	00062703          	lw	a4,0(a2)
80000950:	00462783          	lw	a5,4(a2)
80000954:	00860613          	addi	a2,a2,8
80000958:	00c12623          	sw	a2,12(sp)
8000095c:	c75ff06f          	j	800005d0 <vsnprintf+0x564>
80000960:	03812503          	lw	a0,56(sp)
80000964:	00812623          	sw	s0,12(sp)
80000968:	f4a05c63          	blez	a0,800000c0 <vsnprintf+0x54>
8000096c:	03014783          	lbu	a5,48(sp)
80000970:	c2079ee3          	bnez	a5,800005ac <vsnprintf+0x540>
80000974:	00000713          	li	a4,0
80000978:	fff00793          	li	a5,-1
8000097c:	8edff06f          	j	80000268 <vsnprintf+0x1fc>
80000980:	00c12583          	lw	a1,12(sp)
80000984:	00000793          	li	a5,0
80000988:	0005c703          	lbu	a4,0(a1)
8000098c:	00458593          	addi	a1,a1,4
80000990:	00b12623          	sw	a1,12(sp)
80000994:	f11ff06f          	j	800008a4 <vsnprintf+0x838>
80000998:	00c12583          	lw	a1,12(sp)
8000099c:	00000793          	li	a5,0
800009a0:	0005a703          	lw	a4,0(a1)
800009a4:	00458593          	addi	a1,a1,4
800009a8:	00b12623          	sw	a1,12(sp)
800009ac:	ef1ff06f          	j	8000089c <vsnprintf+0x830>
800009b0:	00400713          	li	a4,4
800009b4:	00c12583          	lw	a1,12(sp)
800009b8:	00e79e63          	bne	a5,a4,800009d4 <vsnprintf+0x968>
800009bc:	0005a703          	lw	a4,0(a1)
800009c0:	0045a783          	lw	a5,4(a1)
800009c4:	00858593          	addi	a1,a1,8
800009c8:	00b12623          	sw	a1,12(sp)
800009cc:	ed9ff06f          	j	800008a4 <vsnprintf+0x838>
800009d0:	00c12583          	lw	a1,12(sp)
800009d4:	0005a703          	lw	a4,0(a1)
800009d8:	00458593          	addi	a1,a1,4
800009dc:	00000793          	li	a5,0
800009e0:	00b12623          	sw	a1,12(sp)
800009e4:	ec1ff06f          	j	800008a4 <vsnprintf+0x838>
800009e8:	00c12783          	lw	a5,12(sp)
800009ec:	00078703          	lb	a4,0(a5)
800009f0:	00478793          	addi	a5,a5,4
800009f4:	00f12623          	sw	a5,12(sp)
800009f8:	41f75793          	srai	a5,a4,0x1f
800009fc:	bd5ff06f          	j	800005d0 <vsnprintf+0x564>
80000a00:	00400713          	li	a4,4
80000a04:	00c12603          	lw	a2,12(sp)
80000a08:	04e79a63          	bne	a5,a4,80000a5c <vsnprintf+0x9f0>
80000a0c:	00062703          	lw	a4,0(a2)
80000a10:	00462783          	lw	a5,4(a2)
80000a14:	00860613          	addi	a2,a2,8
80000a18:	00a00593          	li	a1,10
80000a1c:	00c12623          	sw	a2,12(sp)
80000a20:	00000617          	auipc	a2,0x0
80000a24:	70860613          	addi	a2,a2,1800 # 80001128 <_etext+0x2c>
80000a28:	00b12023          	sw	a1,0(sp)
80000a2c:	00012a23          	sw	zero,20(sp)
80000a30:	00012e23          	sw	zero,28(sp)
80000a34:	00c12823          	sw	a2,16(sp)
80000a38:	bd1ff06f          	j	80000608 <vsnprintf+0x59c>
80000a3c:	00812623          	sw	s0,12(sp)
80000a40:	e80ff06f          	j	800000c0 <vsnprintf+0x54>
80000a44:	00c12603          	lw	a2,12(sp)
80000a48:	00000793          	li	a5,0
80000a4c:	00062703          	lw	a4,0(a2)
80000a50:	00460613          	addi	a2,a2,4
80000a54:	00c12623          	sw	a2,12(sp)
80000a58:	a9dff06f          	j	800004f4 <vsnprintf+0x488>
80000a5c:	00062703          	lw	a4,0(a2)
80000a60:	00460613          	addi	a2,a2,4
80000a64:	00000793          	li	a5,0
80000a68:	00c12623          	sw	a2,12(sp)
80000a6c:	a89ff06f          	j	800004f4 <vsnprintf+0x488>
80000a70:	00a00613          	li	a2,10
80000a74:	e3dff06f          	j	800008b0 <vsnprintf+0x844>

80000a78 <printf>:
80000a78:	bd810113          	addi	sp,sp,-1064
80000a7c:	41410313          	addi	t1,sp,1044
80000a80:	800002b7          	lui	t0,0x80000
80000a84:	40b12a23          	sw	a1,1044(sp)
80000a88:	40c12c23          	sw	a2,1048(sp)
80000a8c:	40d12e23          	sw	a3,1052(sp)
80000a90:	00050613          	mv	a2,a0
80000a94:	00030693          	mv	a3,t1
80000a98:	00810513          	addi	a0,sp,8
80000a9c:	fff28593          	addi	a1,t0,-1 # 7fffffff <_entry_offset+0x7fffffff>
80000aa0:	40112823          	sw	ra,1040(sp)
80000aa4:	42e12023          	sw	a4,1056(sp)
80000aa8:	42f12223          	sw	a5,1060(sp)
80000aac:	00612223          	sw	t1,4(sp)
80000ab0:	dbcff0ef          	jal	8000006c <vsnprintf>
80000ab4:	00a12023          	sw	a0,0(sp)
80000ab8:	02a05663          	blez	a0,80000ae4 <printf+0x6c>
80000abc:	40912423          	sw	s1,1032(sp)
80000ac0:	00810493          	addi	s1,sp,8
80000ac4:	40812623          	sw	s0,1036(sp)
80000ac8:	00a48433          	add	s0,s1,a0
80000acc:	0004c503          	lbu	a0,0(s1)
80000ad0:	00148493          	addi	s1,s1,1
80000ad4:	d6cff0ef          	jal	80000040 <putch>
80000ad8:	fe849ae3          	bne	s1,s0,80000acc <printf+0x54>
80000adc:	40c12403          	lw	s0,1036(sp)
80000ae0:	40812483          	lw	s1,1032(sp)
80000ae4:	41012083          	lw	ra,1040(sp)
80000ae8:	00012503          	lw	a0,0(sp)
80000aec:	42810113          	addi	sp,sp,1064
80000af0:	00008067          	ret

80000af4 <memset>:
80000af4:	0ff5f593          	zext.b	a1,a1
80000af8:	00050793          	mv	a5,a0
80000afc:	00a60733          	add	a4,a2,a0
80000b00:	00060863          	beqz	a2,80000b10 <memset+0x1c>
80000b04:	00b78023          	sb	a1,0(a5)
80000b08:	00178793          	addi	a5,a5,1
80000b0c:	fee79ce3          	bne	a5,a4,80000b04 <memset+0x10>
80000b10:	00008067          	ret

80000b14 <__udivmoddi4>:
80000b14:	fe010113          	addi	sp,sp,-32
80000b18:	00912a23          	sw	s1,20(sp)
80000b1c:	00058793          	mv	a5,a1
80000b20:	00112e23          	sw	ra,28(sp)
80000b24:	00068493          	mv	s1,a3
80000b28:	00050293          	mv	t0,a0
80000b2c:	00060593          	mv	a1,a2
80000b30:	04079663          	bnez	a5,80000b7c <__udivmoddi4+0x68>
80000b34:	20069463          	bnez	a3,80000d3c <__udivmoddi4+0x228>
80000b38:	00e12023          	sw	a4,0(sp)
80000b3c:	02070263          	beqz	a4,80000b60 <__udivmoddi4+0x4c>
80000b40:	00a12423          	sw	a0,8(sp)
80000b44:	00c12223          	sw	a2,4(sp)
80000b48:	550000ef          	jal	80001098 <__umodsi3>
80000b4c:	00012703          	lw	a4,0(sp)
80000b50:	00812283          	lw	t0,8(sp)
80000b54:	00412583          	lw	a1,4(sp)
80000b58:	00072223          	sw	zero,4(a4)
80000b5c:	00a72023          	sw	a0,0(a4)
80000b60:	00028513          	mv	a0,t0
80000b64:	4ec000ef          	jal	80001050 <__hidden___udivsi3>
80000b68:	01c12083          	lw	ra,28(sp)
80000b6c:	01412483          	lw	s1,20(sp)
80000b70:	00000593          	li	a1,0
80000b74:	02010113          	addi	sp,sp,32
80000b78:	00008067          	ret
80000b7c:	00812c23          	sw	s0,24(sp)
80000b80:	00078413          	mv	s0,a5
80000b84:	08061463          	bnez	a2,80000c0c <__udivmoddi4+0xf8>
80000b88:	22068c63          	beqz	a3,80000dc0 <__udivmoddi4+0x2ac>
80000b8c:	2c050063          	beqz	a0,80000e4c <__udivmoddi4+0x338>
80000b90:	fff68693          	addi	a3,a3,-1
80000b94:	0096f633          	and	a2,a3,s1
80000b98:	30060663          	beqz	a2,80000ea4 <__udivmoddi4+0x390>
80000b9c:	00a12423          	sw	a0,8(sp)
80000ba0:	00048513          	mv	a0,s1
80000ba4:	00b12823          	sw	a1,16(sp)
80000ba8:	00f12623          	sw	a5,12(sp)
80000bac:	00e12223          	sw	a4,4(sp)
80000bb0:	390000ef          	jal	80000f40 <__clzsi2>
80000bb4:	00050693          	mv	a3,a0
80000bb8:	00040513          	mv	a0,s0
80000bbc:	00d12023          	sw	a3,0(sp)
80000bc0:	380000ef          	jal	80000f40 <__clzsi2>
80000bc4:	00012683          	lw	a3,0(sp)
80000bc8:	00412703          	lw	a4,4(sp)
80000bcc:	00812283          	lw	t0,8(sp)
80000bd0:	40a68533          	sub	a0,a3,a0
80000bd4:	01e00693          	li	a3,30
80000bd8:	00c12783          	lw	a5,12(sp)
80000bdc:	01012583          	lw	a1,16(sp)
80000be0:	1ea6e263          	bltu	a3,a0,80000dc4 <__udivmoddi4+0x2b0>
80000be4:	00150613          	addi	a2,a0,1
80000be8:	02000793          	li	a5,32
80000bec:	40c787b3          	sub	a5,a5,a2
80000bf0:	00c2d6b3          	srl	a3,t0,a2
80000bf4:	00f41533          	sll	a0,s0,a5
80000bf8:	00f292b3          	sll	t0,t0,a5
80000bfc:	00c457b3          	srl	a5,s0,a2
80000c00:	00d56433          	or	s0,a0,a3
80000c04:	00000693          	li	a3,0
80000c08:	0780006f          	j	80000c80 <__udivmoddi4+0x16c>
80000c0c:	14068a63          	beqz	a3,80000d60 <__udivmoddi4+0x24c>
80000c10:	00a12423          	sw	a0,8(sp)
80000c14:	00068513          	mv	a0,a3
80000c18:	00f12623          	sw	a5,12(sp)
80000c1c:	00e12223          	sw	a4,4(sp)
80000c20:	00c12823          	sw	a2,16(sp)
80000c24:	31c000ef          	jal	80000f40 <__clzsi2>
80000c28:	00050693          	mv	a3,a0
80000c2c:	00040513          	mv	a0,s0
80000c30:	00d12023          	sw	a3,0(sp)
80000c34:	30c000ef          	jal	80000f40 <__clzsi2>
80000c38:	00012683          	lw	a3,0(sp)
80000c3c:	00412703          	lw	a4,4(sp)
80000c40:	00812283          	lw	t0,8(sp)
80000c44:	40a68533          	sub	a0,a3,a0
80000c48:	01f00693          	li	a3,31
80000c4c:	00c12783          	lw	a5,12(sp)
80000c50:	16a6ea63          	bltu	a3,a0,80000dc4 <__udivmoddi4+0x2b0>
80000c54:	00150613          	addi	a2,a0,1
80000c58:	02000793          	li	a5,32
80000c5c:	01012583          	lw	a1,16(sp)
80000c60:	26f60a63          	beq	a2,a5,80000ed4 <__udivmoddi4+0x3c0>
80000c64:	40c786b3          	sub	a3,a5,a2
80000c68:	00d41333          	sll	t1,s0,a3
80000c6c:	00c2d533          	srl	a0,t0,a2
80000c70:	00c457b3          	srl	a5,s0,a2
80000c74:	00d292b3          	sll	t0,t0,a3
80000c78:	00a36433          	or	s0,t1,a0
80000c7c:	00000693          	li	a3,0
80000c80:	00012023          	sw	zero,0(sp)
80000c84:	00040313          	mv	t1,s0
80000c88:	00e12223          	sw	a4,4(sp)
80000c8c:	01f2d513          	srli	a0,t0,0x1f
80000c90:	00131713          	slli	a4,t1,0x1
80000c94:	00a76733          	or	a4,a4,a0
80000c98:	00179793          	slli	a5,a5,0x1
80000c9c:	01f35313          	srli	t1,t1,0x1f
80000ca0:	0067e433          	or	s0,a5,t1
80000ca4:	40e587b3          	sub	a5,a1,a4
80000ca8:	00f5b333          	sltu	t1,a1,a5
80000cac:	40848533          	sub	a0,s1,s0
80000cb0:	0017b793          	seqz	a5,a5
80000cb4:	40650533          	sub	a0,a0,t1
80000cb8:	40f50533          	sub	a0,a0,a5
80000cbc:	41f55793          	srai	a5,a0,0x1f
80000cc0:	00b7f333          	and	t1,a5,a1
80000cc4:	01f6d393          	srli	t2,a3,0x1f
80000cc8:	0097f7b3          	and	a5,a5,s1
80000ccc:	40670333          	sub	t1,a4,t1
80000cd0:	00129293          	slli	t0,t0,0x1
80000cd4:	00673733          	sltu	a4,a4,t1
80000cd8:	40f407b3          	sub	a5,s0,a5
80000cdc:	0072e2b3          	or	t0,t0,t2
80000ce0:	00012383          	lw	t2,0(sp)
80000ce4:	40e787b3          	sub	a5,a5,a4
80000ce8:	01f55713          	srli	a4,a0,0x1f
80000cec:	00169693          	slli	a3,a3,0x1
80000cf0:	fff60613          	addi	a2,a2,-1
80000cf4:	00e12023          	sw	a4,0(sp)
80000cf8:	0076e6b3          	or	a3,a3,t2
80000cfc:	f80618e3          	bnez	a2,80000c8c <__udivmoddi4+0x178>
80000d00:	00412703          	lw	a4,4(sp)
80000d04:	00070663          	beqz	a4,80000d10 <__udivmoddi4+0x1fc>
80000d08:	00672023          	sw	t1,0(a4)
80000d0c:	00f72223          	sw	a5,4(a4)
80000d10:	01f6d793          	srli	a5,a3,0x1f
80000d14:	00129713          	slli	a4,t0,0x1
80000d18:	01812403          	lw	s0,24(sp)
80000d1c:	01c12083          	lw	ra,28(sp)
80000d20:	00e7e5b3          	or	a1,a5,a4
80000d24:	00012783          	lw	a5,0(sp)
80000d28:	00169513          	slli	a0,a3,0x1
80000d2c:	01412483          	lw	s1,20(sp)
80000d30:	00f56533          	or	a0,a0,a5
80000d34:	02010113          	addi	sp,sp,32
80000d38:	00008067          	ret
80000d3c:	00070663          	beqz	a4,80000d48 <__udivmoddi4+0x234>
80000d40:	00a72023          	sw	a0,0(a4)
80000d44:	00072223          	sw	zero,4(a4)
80000d48:	00000513          	li	a0,0
80000d4c:	00000593          	li	a1,0
80000d50:	01c12083          	lw	ra,28(sp)
80000d54:	01412483          	lw	s1,20(sp)
80000d58:	02010113          	addi	sp,sp,32
80000d5c:	00008067          	ret
80000d60:	fff60613          	addi	a2,a2,-1
80000d64:	00b67533          	and	a0,a2,a1
80000d68:	06051863          	bnez	a0,80000dd8 <__udivmoddi4+0x2c4>
80000d6c:	00070863          	beqz	a4,80000d7c <__udivmoddi4+0x268>
80000d70:	00567633          	and	a2,a2,t0
80000d74:	00c72023          	sw	a2,0(a4)
80000d78:	00072223          	sw	zero,4(a4)
80000d7c:	00100713          	li	a4,1
80000d80:	10e58663          	beq	a1,a4,80000e8c <__udivmoddi4+0x378>
80000d84:	00058513          	mv	a0,a1
80000d88:	00f12223          	sw	a5,4(sp)
80000d8c:	00512023          	sw	t0,0(sp)
80000d90:	240000ef          	jal	80000fd0 <__ctzsi2>
80000d94:	00412783          	lw	a5,4(sp)
80000d98:	00012283          	lw	t0,0(sp)
80000d9c:	02000693          	li	a3,32
80000da0:	40a686b3          	sub	a3,a3,a0
80000da4:	00050713          	mv	a4,a0
80000da8:	00a2d2b3          	srl	t0,t0,a0
80000dac:	00d796b3          	sll	a3,a5,a3
80000db0:	01812403          	lw	s0,24(sp)
80000db4:	0056e533          	or	a0,a3,t0
80000db8:	00e7d5b3          	srl	a1,a5,a4
80000dbc:	f95ff06f          	j	80000d50 <__udivmoddi4+0x23c>
80000dc0:	00100073          	ebreak
80000dc4:	0c070c63          	beqz	a4,80000e9c <__udivmoddi4+0x388>
80000dc8:	01812403          	lw	s0,24(sp)
80000dcc:	00572023          	sw	t0,0(a4)
80000dd0:	00f72223          	sw	a5,4(a4)
80000dd4:	f75ff06f          	j	80000d48 <__udivmoddi4+0x234>
80000dd8:	00058513          	mv	a0,a1
80000ddc:	00512823          	sw	t0,16(sp)
80000de0:	00e12623          	sw	a4,12(sp)
80000de4:	00d12423          	sw	a3,8(sp)
80000de8:	00b12223          	sw	a1,4(sp)
80000dec:	154000ef          	jal	80000f40 <__clzsi2>
80000df0:	00050793          	mv	a5,a0
80000df4:	00040513          	mv	a0,s0
80000df8:	00f12023          	sw	a5,0(sp)
80000dfc:	144000ef          	jal	80000f40 <__clzsi2>
80000e00:	00012783          	lw	a5,0(sp)
80000e04:	02000313          	li	t1,32
80000e08:	01012283          	lw	t0,16(sp)
80000e0c:	40a78533          	sub	a0,a5,a0
80000e10:	02150613          	addi	a2,a0,33
80000e14:	00412583          	lw	a1,4(sp)
80000e18:	00812683          	lw	a3,8(sp)
80000e1c:	00c12703          	lw	a4,12(sp)
80000e20:	00000793          	li	a5,0
80000e24:	e4660ee3          	beq	a2,t1,80000c80 <__udivmoddi4+0x16c>
80000e28:	01f00393          	li	t2,31
80000e2c:	0ac3ea63          	bltu	t2,a2,80000ee0 <__udivmoddi4+0x3cc>
80000e30:	40c30333          	sub	t1,t1,a2
80000e34:	00c2d533          	srl	a0,t0,a2
80000e38:	006413b3          	sll	t2,s0,t1
80000e3c:	00c457b3          	srl	a5,s0,a2
80000e40:	006292b3          	sll	t0,t0,t1
80000e44:	00a3e433          	or	s0,t2,a0
80000e48:	e39ff06f          	j	80000c80 <__udivmoddi4+0x16c>
80000e4c:	00e12023          	sw	a4,0(sp)
80000e50:	02070263          	beqz	a4,80000e74 <__udivmoddi4+0x360>
80000e54:	00078513          	mv	a0,a5
80000e58:	00068593          	mv	a1,a3
80000e5c:	00f12223          	sw	a5,4(sp)
80000e60:	238000ef          	jal	80001098 <__umodsi3>
80000e64:	00012703          	lw	a4,0(sp)
80000e68:	00412783          	lw	a5,4(sp)
80000e6c:	00072023          	sw	zero,0(a4)
80000e70:	00a72223          	sw	a0,4(a4)
80000e74:	00048593          	mv	a1,s1
80000e78:	00078513          	mv	a0,a5
80000e7c:	1d4000ef          	jal	80001050 <__hidden___udivsi3>
80000e80:	00000593          	li	a1,0
80000e84:	01812403          	lw	s0,24(sp)
80000e88:	ec9ff06f          	j	80000d50 <__udivmoddi4+0x23c>
80000e8c:	01812403          	lw	s0,24(sp)
80000e90:	00028513          	mv	a0,t0
80000e94:	00078593          	mv	a1,a5
80000e98:	eb9ff06f          	j	80000d50 <__udivmoddi4+0x23c>
80000e9c:	01812403          	lw	s0,24(sp)
80000ea0:	ea9ff06f          	j	80000d48 <__udivmoddi4+0x234>
80000ea4:	00070863          	beqz	a4,80000eb4 <__udivmoddi4+0x3a0>
80000ea8:	00f6f6b3          	and	a3,a3,a5
80000eac:	00d72223          	sw	a3,4(a4)
80000eb0:	00a72023          	sw	a0,0(a4)
80000eb4:	00048513          	mv	a0,s1
80000eb8:	00f12023          	sw	a5,0(sp)
80000ebc:	114000ef          	jal	80000fd0 <__ctzsi2>
80000ec0:	00012783          	lw	a5,0(sp)
80000ec4:	01812403          	lw	s0,24(sp)
80000ec8:	00000593          	li	a1,0
80000ecc:	00a7d533          	srl	a0,a5,a0
80000ed0:	e81ff06f          	j	80000d50 <__udivmoddi4+0x23c>
80000ed4:	00000793          	li	a5,0
80000ed8:	00000693          	li	a3,0
80000edc:	da5ff06f          	j	80000c80 <__udivmoddi4+0x16c>
80000ee0:	04000313          	li	t1,64
80000ee4:	00150513          	addi	a0,a0,1
80000ee8:	40c30333          	sub	t1,t1,a2
80000eec:	006296b3          	sll	a3,t0,t1
80000ef0:	00641333          	sll	t1,s0,t1
80000ef4:	00a2d2b3          	srl	t0,t0,a0
80000ef8:	005362b3          	or	t0,t1,t0
80000efc:	00a45433          	srl	s0,s0,a0
80000f00:	d81ff06f          	j	80000c80 <__udivmoddi4+0x16c>

80000f04 <__udivdi3>:
80000f04:	00000713          	li	a4,0
80000f08:	c0dff06f          	j	80000b14 <__udivmoddi4>

80000f0c <__umoddi3>:
80000f0c:	fec10113          	addi	sp,sp,-20
80000f10:	00812623          	sw	s0,12(sp)
80000f14:	00710413          	addi	s0,sp,7
80000f18:	ff847413          	andi	s0,s0,-8
80000f1c:	00040713          	mv	a4,s0
80000f20:	00112823          	sw	ra,16(sp)
80000f24:	bf1ff0ef          	jal	80000b14 <__udivmoddi4>
80000f28:	00042503          	lw	a0,0(s0)
80000f2c:	00442583          	lw	a1,4(s0)
80000f30:	01012083          	lw	ra,16(sp)
80000f34:	00c12403          	lw	s0,12(sp)
80000f38:	01410113          	addi	sp,sp,20
80000f3c:	00008067          	ret

80000f40 <__clzsi2>:
80000f40:	000106b7          	lui	a3,0x10
80000f44:	00d536b3          	sltu	a3,a0,a3
80000f48:	00469693          	slli	a3,a3,0x4
80000f4c:	01000793          	li	a5,16
80000f50:	40d787b3          	sub	a5,a5,a3
80000f54:	00010737          	lui	a4,0x10
80000f58:	00f557b3          	srl	a5,a0,a5
80000f5c:	f0070713          	addi	a4,a4,-256 # ff00 <_entry_offset+0xff00>
80000f60:	00e7f733          	and	a4,a5,a4
80000f64:	00173713          	seqz	a4,a4
80000f68:	00371713          	slli	a4,a4,0x3
80000f6c:	00800613          	li	a2,8
80000f70:	40e60633          	sub	a2,a2,a4
80000f74:	00c7d7b3          	srl	a5,a5,a2
80000f78:	0f07f593          	andi	a1,a5,240
80000f7c:	0015b593          	seqz	a1,a1
80000f80:	00259593          	slli	a1,a1,0x2
80000f84:	00400613          	li	a2,4
80000f88:	40b60633          	sub	a2,a2,a1
80000f8c:	00c7d7b3          	srl	a5,a5,a2
80000f90:	00c7f613          	andi	a2,a5,12
80000f94:	00163613          	seqz	a2,a2
80000f98:	00200513          	li	a0,2
80000f9c:	00161613          	slli	a2,a2,0x1
80000fa0:	40c50333          	sub	t1,a0,a2
80000fa4:	0067d7b3          	srl	a5,a5,t1
80000fa8:	0017d313          	srli	t1,a5,0x1
80000fac:	00d70733          	add	a4,a4,a3
80000fb0:	00137693          	andi	a3,t1,1
80000fb4:	00e58733          	add	a4,a1,a4
80000fb8:	40f50533          	sub	a0,a0,a5
80000fbc:	00068463          	beqz	a3,80000fc4 <__clzsi2+0x84>
80000fc0:	00000513          	li	a0,0
80000fc4:	00e60733          	add	a4,a2,a4
80000fc8:	00e50533          	add	a0,a0,a4
80000fcc:	00008067          	ret

80000fd0 <__ctzsi2>:
80000fd0:	01051293          	slli	t0,a0,0x10
80000fd4:	0102d293          	srli	t0,t0,0x10
80000fd8:	0012b293          	seqz	t0,t0
80000fdc:	00429293          	slli	t0,t0,0x4
80000fe0:	005557b3          	srl	a5,a0,t0
80000fe4:	0ff7f613          	zext.b	a2,a5
80000fe8:	00163613          	seqz	a2,a2
80000fec:	00361613          	slli	a2,a2,0x3
80000ff0:	00c7d7b3          	srl	a5,a5,a2
80000ff4:	00f7f693          	andi	a3,a5,15
80000ff8:	0016b693          	seqz	a3,a3
80000ffc:	00269693          	slli	a3,a3,0x2
80001000:	00d7d7b3          	srl	a5,a5,a3
80001004:	0037f713          	andi	a4,a5,3
80001008:	00173713          	seqz	a4,a4
8000100c:	00171713          	slli	a4,a4,0x1
80001010:	00e7d7b3          	srl	a5,a5,a4
80001014:	0037f793          	andi	a5,a5,3
80001018:	fff7c313          	not	t1,a5
8000101c:	00560633          	add	a2,a2,t0
80001020:	0017d793          	srli	a5,a5,0x1
80001024:	00200593          	li	a1,2
80001028:	00137313          	andi	t1,t1,1
8000102c:	00c686b3          	add	a3,a3,a2
80001030:	40600333          	neg	t1,t1
80001034:	40f585b3          	sub	a1,a1,a5
80001038:	00d70533          	add	a0,a4,a3
8000103c:	00b375b3          	and	a1,t1,a1
80001040:	00a58533          	add	a0,a1,a0
80001044:	00008067          	ret

80001048 <__divsi3>:
80001048:	06054063          	bltz	a0,800010a8 <__umodsi3+0x10>
8000104c:	0605c663          	bltz	a1,800010b8 <__umodsi3+0x20>

80001050 <__hidden___udivsi3>:
80001050:	00058613          	mv	a2,a1
80001054:	00050593          	mv	a1,a0
80001058:	fff00513          	li	a0,-1
8000105c:	02060c63          	beqz	a2,80001094 <__hidden___udivsi3+0x44>
80001060:	00100693          	li	a3,1
80001064:	00b67a63          	bgeu	a2,a1,80001078 <__hidden___udivsi3+0x28>
80001068:	00c05863          	blez	a2,80001078 <__hidden___udivsi3+0x28>
8000106c:	00161613          	slli	a2,a2,0x1
80001070:	00169693          	slli	a3,a3,0x1
80001074:	feb66ae3          	bltu	a2,a1,80001068 <__hidden___udivsi3+0x18>
80001078:	00000513          	li	a0,0
8000107c:	00c5e663          	bltu	a1,a2,80001088 <__hidden___udivsi3+0x38>
80001080:	40c585b3          	sub	a1,a1,a2
80001084:	00d56533          	or	a0,a0,a3
80001088:	0016d693          	srli	a3,a3,0x1
8000108c:	00165613          	srli	a2,a2,0x1
80001090:	fe0696e3          	bnez	a3,8000107c <__hidden___udivsi3+0x2c>
80001094:	00008067          	ret

80001098 <__umodsi3>:
80001098:	00008293          	mv	t0,ra
8000109c:	fb5ff0ef          	jal	80001050 <__hidden___udivsi3>
800010a0:	00058513          	mv	a0,a1
800010a4:	00028067          	jr	t0
800010a8:	40a00533          	neg	a0,a0
800010ac:	00b04863          	bgtz	a1,800010bc <__umodsi3+0x24>
800010b0:	40b005b3          	neg	a1,a1
800010b4:	f9dff06f          	j	80001050 <__hidden___udivsi3>
800010b8:	40b005b3          	neg	a1,a1
800010bc:	00008293          	mv	t0,ra
800010c0:	f91ff0ef          	jal	80001050 <__hidden___udivsi3>
800010c4:	40a00533          	neg	a0,a0
800010c8:	00028067          	jr	t0

800010cc <__modsi3>:
800010cc:	00008293          	mv	t0,ra
800010d0:	0005ca63          	bltz	a1,800010e4 <__modsi3+0x18>
800010d4:	00054c63          	bltz	a0,800010ec <__modsi3+0x20>
800010d8:	f79ff0ef          	jal	80001050 <__hidden___udivsi3>
800010dc:	00058513          	mv	a0,a1
800010e0:	00028067          	jr	t0
800010e4:	40b005b3          	neg	a1,a1
800010e8:	fe0558e3          	bgez	a0,800010d8 <__modsi3+0xc>
800010ec:	40a00533          	neg	a0,a0
800010f0:	f61ff0ef          	jal	80001050 <__hidden___udivsi3>
800010f4:	40b00533          	neg	a0,a1
800010f8:	00028067          	jr	t0
